
xmega16e5-plumbus-full.elf:     file format elf32-avr

Sections:
Idx Name          Size      VMA       LMA       File off  Algn
  0 .text         00002920  00000000  00000000  00000094  2**1
                  CONTENTS, ALLOC, LOAD, READONLY, CODE
  1 .data         000001a0  00802000  00002920  000029b4  2**0
                  CONTENTS, ALLOC, LOAD, DATA
  2 .bss          0000010e  008021a0  008021a0  00002b54  2**0
                  ALLOC
  3 .comment      00000030  00000000  00000000  00002b54  2**0
                  CONTENTS, READONLY
  4 .note.gnu.avr.deviceinfo 00000040  00000000  00000000  00002b84  2**2
                  CONTENTS, READONLY
  5 .debug_aranges 000003b0  00000000  00000000  00002bc8  2**3
                  CONTENTS, READONLY, DEBUGGING
  6 .debug_info   00008808  00000000  00000000  00002f78  2**0
                  CONTENTS, READONLY, DEBUGGING
  7 .debug_abbrev 00002c67  00000000  00000000  0000b780  2**0
                  CONTENTS, READONLY, DEBUGGING
  8 .debug_line   000029b3  00000000  00000000  0000e3e7  2**0
                  CONTENTS, READONLY, DEBUGGING
  9 .debug_frame  000008a0  00000000  00000000  00010d9c  2**2
                  CONTENTS, READONLY, DEBUGGING
 10 .debug_str    000041fe  00000000  00000000  0001163c  2**0
                  CONTENTS, READONLY, DEBUGGING
 11 .debug_loc    00001843  00000000  00000000  0001583a  2**0
                  CONTENTS, READONLY, DEBUGGING
 12 .debug_ranges 000002d0  00000000  00000000  0001707d  2**0
                  CONTENTS, READONLY, DEBUGGING

Disassembly of section .text:

00000000 <__vectors>:
       0:	0c 94 be 01 	jmp	0x37c	; 0x37c <__ctors_end>
       4:	0c 94 db 01 	jmp	0x3b6	; 0x3b6 <__bad_interrupt>
       8:	0c 94 db 01 	jmp	0x3b6	; 0x3b6 <__bad_interrupt>
       c:	0c 94 d5 0d 	jmp	0x1baa	; 0x1baa <__vector_3>
      10:	0c 94 db 01 	jmp	0x3b6	; 0x3b6 <__bad_interrupt>
      14:	0c 94 db 01 	jmp	0x3b6	; 0x3b6 <__bad_interrupt>
      18:	0c 94 db 01 	jmp	0x3b6	; 0x3b6 <__bad_interrupt>
      1c:	0c 94 db 01 	jmp	0x3b6	; 0x3b6 <__bad_interrupt>
      20:	0c 94 db 01 	jmp	0x3b6	; 0x3b6 <__bad_interrupt>
      24:	0c 94 db 01 	jmp	0x3b6	; 0x3b6 <__bad_interrupt>
      28:	0c 94 db 01 	jmp	0x3b6	; 0x3b6 <__bad_interrupt>
      2c:	0c 94 54 04 	jmp	0x8a8	; 0x8a8 <__vector_11>
      30:	0c 94 b1 0d 	jmp	0x1b62	; 0x1b62 <__vector_12>
      34:	0c 94 db 01 	jmp	0x3b6	; 0x3b6 <__bad_interrupt>
      38:	0c 94 db 01 	jmp	0x3b6	; 0x3b6 <__bad_interrupt>
      3c:	0c 94 db 01 	jmp	0x3b6	; 0x3b6 <__bad_interrupt>
      40:	0c 94 db 01 	jmp	0x3b6	; 0x3b6 <__bad_interrupt>
      44:	0c 94 db 01 	jmp	0x3b6	; 0x3b6 <__bad_interrupt>
      48:	0c 94 db 01 	jmp	0x3b6	; 0x3b6 <__bad_interrupt>
      4c:	0c 94 db 01 	jmp	0x3b6	; 0x3b6 <__bad_interrupt>
      50:	0c 94 db 01 	jmp	0x3b6	; 0x3b6 <__bad_interrupt>
      54:	0c 94 db 01 	jmp	0x3b6	; 0x3b6 <__bad_interrupt>
      58:	0c 94 db 01 	jmp	0x3b6	; 0x3b6 <__bad_interrupt>
      5c:	0c 94 db 01 	jmp	0x3b6	; 0x3b6 <__bad_interrupt>
      60:	0c 94 db 01 	jmp	0x3b6	; 0x3b6 <__bad_interrupt>
      64:	0c 94 db 01 	jmp	0x3b6	; 0x3b6 <__bad_interrupt>
      68:	0c 94 db 01 	jmp	0x3b6	; 0x3b6 <__bad_interrupt>
      6c:	0c 94 db 01 	jmp	0x3b6	; 0x3b6 <__bad_interrupt>
      70:	0c 94 db 01 	jmp	0x3b6	; 0x3b6 <__bad_interrupt>
      74:	0c 94 db 01 	jmp	0x3b6	; 0x3b6 <__bad_interrupt>
      78:	0c 94 db 01 	jmp	0x3b6	; 0x3b6 <__bad_interrupt>
      7c:	0c 94 db 01 	jmp	0x3b6	; 0x3b6 <__bad_interrupt>
      80:	0c 94 db 01 	jmp	0x3b6	; 0x3b6 <__bad_interrupt>
      84:	0c 94 db 01 	jmp	0x3b6	; 0x3b6 <__bad_interrupt>
      88:	0c 94 db 01 	jmp	0x3b6	; 0x3b6 <__bad_interrupt>
      8c:	0c 94 db 01 	jmp	0x3b6	; 0x3b6 <__bad_interrupt>
      90:	0c 94 db 01 	jmp	0x3b6	; 0x3b6 <__bad_interrupt>
      94:	0c 94 db 01 	jmp	0x3b6	; 0x3b6 <__bad_interrupt>
      98:	0c 94 f9 0d 	jmp	0x1bf2	; 0x1bf2 <__vector_38>
      9c:	0c 94 db 01 	jmp	0x3b6	; 0x3b6 <__bad_interrupt>
      a0:	0c 94 db 01 	jmp	0x3b6	; 0x3b6 <__bad_interrupt>
      a4:	0c 94 db 01 	jmp	0x3b6	; 0x3b6 <__bad_interrupt>
      a8:	0c 94 db 01 	jmp	0x3b6	; 0x3b6 <__bad_interrupt>

000000ac <__trampolines_end>:
      ac:	00 00       	nop
      ae:	00 80       	ld	r0, Z

000000b0 <easterEggMainBass>:
      b0:	68 61 61 61 68 61 61 61 68 61 61 61 68 61 61 61     haaahaaahaaahaaa
      c0:	6d 66 66 66 6d 66 66 66 6d 66 66 66 6d 66 66 2d     mfffmfffmfffmff-

000000d0 <easterEggIntroExtBass>:
	...

000000d1 <easterEggIntroBass>:
      d1:	80                                                  .

000000d2 <easterEggMainExtTreble>:
      d2:	00 00 00                                            ...

000000d5 <easterEggMainTreble>:
      d5:	5c 58 96 5c 58 96 5c 58 56 51 93 56 55 56 5a dd     \X.\X.\XVQ.VUVZ.
      e5:	40 5f 5d 5a 7d                                      @_]Z}

000000ea <easterEggIntroExtTreble>:
	...

000000eb <easterEggIntroTreble>:
      eb:	80                                                  .

000000ec <portalMainExtBass>:
	...

00000102 <portalMainBass>:
     102:	64 5f 5b 5f 62 5f 5b 5f 64 5f 5b 5f 62 5f 5b 5f     d_[_b_[_d_[_b_[_
     112:	64 5f 5b 5f 62 5f 5b 5f 64 5f 5b 5f 62 5f 5b 5f     d_[_b_[_d_[_b_[_
     122:	62 5d 5a 5d 62 5d 5a 5d 64 5d 5a 5d 64 5d 5a 5d     b]Z]b]Z]d]Z]d]Z]
     132:	64 5f 5b 5f 62 5f 5b 5f 64 5f 5b 5f 62 5f 5b 5f     d_[_b_[_d_[_b_[_
     142:	64 5f 5b 5f 62 5f 5b 5f 64 5f 5b 5f 62 5f 5b 5f     d_[_b_[_d_[_b_[_
     152:	64 5f 5b 5f 62 5f 5b 5f 64 5f 5b 5f 62 5f 5b 5f     d_[_b_[_d_[_b_[_
     162:	62 5d 5a 5d 62 5d 5a 5d 64 5d 5a 5d 64 5d 5a 5d     b]Z]b]Z]d]Z]d]Z]
     172:	63 5f 5c 57 c0 a8 40 68 a1 40 61 a3 40 63 a8 a1     c_\W..@h.@a.@c..
     182:	a8 40 68 a1 40 61 a3 40 63 a8 9c e3 e1 9c 9d 9f     .@h.@a.@c.......
     192:	a1 e3 a4 b0 ab 40 6b ae 40 6e ab 40 6b ae 40 6e     .....@k.@n.@k.@n
     1a2:	ab 40 6b ae 40 6e ab 40 6b ee                       .@k.@n.@k.

000001ac <portalIntroExtBass>:
	...

000001ad <portalIntroBass>:
     1ad:	c0                                                  .

000001ae <portalMainExtTreble>:
     1ae:	02 00 00 04 01 00 00 00 00 00 00 00 00 00 00 00     ................
	...

000001c0 <portalMainTreble>:
     1c0:	cf 00 4e 4f 51 91 8f 40 93 51 d8 c0 58 91 4f 8e     ..NOQ..@.Q..X.O.
     1d0:	40 51 94 93 40 91 58 98 8f 40 00 4e 4f 51 51 cf     @Q..@.X..@.NOQQ.
     1e0:	00 4e 4f 51 91 40 4f 93 40 51 d8 40 c0 91 4f 8e     .NOQ.@O.@Q.@..O.
     1f0:	40 51 94 40 53 91 58 53 51 50 51 53 55 80 58 57     @Q.@S.XSQPQSU.XW
     200:	95 90 51 53 53 55 53 55 55 40 95 58 57 95 90 4e     ..QSSUSUU@.XW..N
     210:	50 51 53 53 51 90 90 4e 4c 4b 4b 8c 8e 50 4e 4c     PQSSQ..NLKK..PNL
     220:	4c 8e 90 53 55 53 50 50 51 40 51 4f 4f 40 5f 5b     L..SUSPPQ@QOO@_[
     230:	5f 62 5f 5b 5f 64 5f 5b 5f 62 5f 5b 5f 64 5f 5b     _b_[_d_[_b_[_d_[
     240:	5f 62 5f 5b 5f 64 5f 5b 58 4e 4f 51 51              _b_[_d_[XNOQQ

0000024d <portalIntroExtTreble>:
	...

0000024e <portalIntroTreble>:
     24e:	4e 4f 51 51                                         NOQQ

00000252 <nyanMainExtBass>:
     252:	00 00 00                                            ...

00000255 <nyanMainBass>:
     255:	75 69 73 67 76 6a 71 65 78 6c 73 67 3a 2e 7a 78     uisgvjqexlsg:.zx
     265:	76                                                  v

00000266 <nyanIntroExtBass>:
     266:	03                                                  .

00000267 <nyanIntroBass>:
	...

00000269 <nyanMainExtTreble>:
	...

00000284 <nyanMainTreble>:
     284:	4f 4d 15 52 14 13 14 56 56 54 53 13 14 16 14 12     OM.R...VVTS.....
     294:	0f 0d 12 0f 14 12 16 14 16 52 4f 0d 12 0f 14 12     .........RO.....
     2a4:	16 15 12 13 14 16 14 53 16 14 12 0f 14 13 14 16     .......S........
     2b4:	54 56 54 4f 4d 15 52 14 13 14 56 56 54 53 13 14     TVTOM.R...VVTS..
     2c4:	16 14 12 0f 0d 12 0f 14 12 16 14 16 52 4f 0d 12     ............RO..
     2d4:	0f 14 12 16 15 12 13 14 16 14 53 16 14 12 0f 14     ..........S.....
     2e4:	13 14 16 54 56 56 56 1b 19 56 1b 19 16 14 12 16     ...TVVV..V......
     2f4:	11 12 11 0f 56 56 1b 19 16 1b 11 12 14 16 1d 1e     ....VV..........
     304:	1d 1b 56 1b 19 56 1b 19 16 16 14 12 16 1b 19 1b     ..V..V..........
     314:	56 16 17 16 1b 19 16 11 12 11 0f 56 57 56 1b 19     V..........VWV..
     324:	56 1b 19 16 14 12 16 11 12 11 0f 56 56 1b 19 16     V..........VV...
     334:	1b 11 12 14 16 1d 1e 1d 1b 56 1b 19 56 1b 19 16     .........V..V...
     344:	16 14 12 16 1b 19 1b 56 16 17 16 1b 19 16 11 12     .......V........
     354:	11 0f 56 54                                         ..VT

00000358 <nyanIntroExtTreble>:
     358:	00 00 00 00                                         ....

0000035c <nyanIntroTreble>:
     35c:	12 11 0f 00 0a 11 12 11 0f 0a 06 05 06 0b 0a 00     ................
     36c:	0f 00 12 11 0f 00 4a 08 0b 0a 08 05 06 05 08 00     ......J.........

0000037c <__ctors_end>:
     37c:	11 24       	eor	r1, r1
     37e:	1f be       	out	0x3f, r1	; 63
     380:	cf ef       	ldi	r28, 0xFF	; 255
     382:	cd bf       	out	0x3d, r28	; 61
     384:	d7 e2       	ldi	r29, 0x27	; 39
     386:	de bf       	out	0x3e, r29	; 62

00000388 <__do_copy_data>:
     388:	11 e2       	ldi	r17, 0x21	; 33
     38a:	a0 e0       	ldi	r26, 0x00	; 0
     38c:	b0 e2       	ldi	r27, 0x20	; 32
     38e:	e0 e2       	ldi	r30, 0x20	; 32
     390:	f9 e2       	ldi	r31, 0x29	; 41
     392:	02 c0       	rjmp	.+4      	; 0x398 <__do_copy_data+0x10>
     394:	05 90       	lpm	r0, Z+
     396:	0d 92       	st	X+, r0
     398:	a0 3a       	cpi	r26, 0xA0	; 160
     39a:	b1 07       	cpc	r27, r17
     39c:	d9 f7       	brne	.-10     	; 0x394 <__do_copy_data+0xc>

0000039e <__do_clear_bss>:
     39e:	22 e2       	ldi	r18, 0x22	; 34
     3a0:	a0 ea       	ldi	r26, 0xA0	; 160
     3a2:	b1 e2       	ldi	r27, 0x21	; 33
     3a4:	01 c0       	rjmp	.+2      	; 0x3a8 <.do_clear_bss_start>

000003a6 <.do_clear_bss_loop>:
     3a6:	1d 92       	st	X+, r1

000003a8 <.do_clear_bss_start>:
     3a8:	ae 3a       	cpi	r26, 0xAE	; 174
     3aa:	b2 07       	cpc	r27, r18
     3ac:	e1 f7       	brne	.-8      	; 0x3a6 <.do_clear_bss_loop>
     3ae:	0e 94 59 0d 	call	0x1ab2	; 0x1ab2 <main>
     3b2:	0c 94 8e 14 	jmp	0x291c	; 0x291c <_exit>

000003b6 <__bad_interrupt>:
     3b6:	0c 94 00 00 	jmp	0	; 0x0 <__vectors>

000003ba <game_won_easy>:
uint8_t * start_size;


void game_won_easy()
{
	play_lights_won_easy_game();
     3ba:	0e 94 1f 09 	call	0x123e	; 0x123e <play_lights_won_easy_game>
		
	if (!(note_player_playing()))
     3be:	0e 94 84 0e 	call	0x1d08	; 0x1d08 <note_player_playing>
     3c2:	81 11       	cpse	r24, r1
     3c4:	2f c0       	rjmp	.+94     	; 0x424 <__LOCK_REGION_LENGTH__+0x24>
	{
		if (play_index < sizeof(easy_won_notes))
     3c6:	e0 91 a6 21 	lds	r30, 0x21A6	; 0x8021a6 <play_index>
     3ca:	ec 30       	cpi	r30, 0x0C	; 12
     3cc:	78 f4       	brcc	.+30     	; 0x3ec <game_won_easy+0x32>
		{
			timer_counter = 0;
     3ce:	10 92 a3 21 	sts	0x21A3, r1	; 0x8021a3 <timer_counter>
     3d2:	10 92 a4 21 	sts	0x21A4, r1	; 0x8021a4 <timer_counter+0x1>
			note_play(easy_won_notes[play_index++]);
     3d6:	81 e0       	ldi	r24, 0x01	; 1
     3d8:	8e 0f       	add	r24, r30
     3da:	80 93 a6 21 	sts	0x21A6, r24	; 0x8021a6 <play_index>
     3de:	f0 e0       	ldi	r31, 0x00	; 0
     3e0:	e2 5f       	subi	r30, 0xF2	; 242
     3e2:	ff 4d       	sbci	r31, 0xDF	; 223
     3e4:	80 81       	ld	r24, Z
     3e6:	0e 94 54 0e 	call	0x1ca8	; 0x1ca8 <note_play>
     3ea:	08 95       	ret
		}
		else
		{
			if (timer_counter++ > STEP_PAUSE)
     3ec:	80 91 a3 21 	lds	r24, 0x21A3	; 0x8021a3 <timer_counter>
     3f0:	90 91 a4 21 	lds	r25, 0x21A4	; 0x8021a4 <timer_counter+0x1>
     3f4:	9c 01       	movw	r18, r24
     3f6:	2f 5f       	subi	r18, 0xFF	; 255
     3f8:	3f 4f       	sbci	r19, 0xFF	; 255
     3fa:	20 93 a3 21 	sts	0x21A3, r18	; 0x8021a3 <timer_counter>
     3fe:	30 93 a4 21 	sts	0x21A4, r19	; 0x8021a4 <timer_counter+0x1>
     402:	06 97       	sbiw	r24, 0x06	; 6
     404:	78 f0       	brcs	.+30     	; 0x424 <__LOCK_REGION_LENGTH__+0x24>
			{
				play_index = 0;
     406:	10 92 a6 21 	sts	0x21A6, r1	; 0x8021a6 <play_index>
				timer_counter = 0;
     40a:	10 92 a3 21 	sts	0x21A3, r1	; 0x8021a3 <timer_counter>
     40e:	10 92 a4 21 	sts	0x21A4, r1	; 0x8021a4 <timer_counter+0x1>
				sequence_initialized = 0;
     412:	10 92 a1 21 	sts	0x21A1, r1	; 0x8021a1 <sequence_initialized>
				game_state = game_start;
     416:	10 92 a0 21 	sts	0x21A0, r1	; 0x8021a0 <__data_end>
				play_lights_game(expander_read_ports(), 0);
     41a:	0e 94 24 05 	call	0xa48	; 0xa48 <expander_read_ports>
     41e:	60 e0       	ldi	r22, 0x00	; 0
     420:	0e 94 a2 08 	call	0x1144	; 0x1144 <play_lights_game>
     424:	08 95       	ret

00000426 <game_won_hard>:
	}
}

void game_won_hard()
{
	if (timer_counter++ < STEP_PAUSE)
     426:	80 91 a3 21 	lds	r24, 0x21A3	; 0x8021a3 <timer_counter>
     42a:	90 91 a4 21 	lds	r25, 0x21A4	; 0x8021a4 <timer_counter+0x1>
     42e:	9c 01       	movw	r18, r24
     430:	2f 5f       	subi	r18, 0xFF	; 255
     432:	3f 4f       	sbci	r19, 0xFF	; 255
     434:	20 93 a3 21 	sts	0x21A3, r18	; 0x8021a3 <timer_counter>
     438:	30 93 a4 21 	sts	0x21A4, r19	; 0x8021a4 <timer_counter+0x1>
     43c:	05 97       	sbiw	r24, 0x05	; 5
     43e:	30 f0       	brcs	.+12     	; 0x44c <game_won_hard+0x26>
	{
		return;
	}
	
	set_allow_portal(ALLOW_VAL);
     440:	85 e5       	ldi	r24, 0x55	; 85
     442:	0e 94 73 11 	call	0x22e6	; 0x22e6 <set_allow_portal>
	set_start_mode(PORTAL_sm);
     446:	85 e0       	ldi	r24, 0x05	; 5
     448:	0e 94 d0 11 	call	0x23a0	; 0x23a0 <set_start_mode>
     44c:	08 95       	ret

0000044e <easy_sequence_init>:
}

void easy_sequence_init()
{
     44e:	0f 93       	push	r16
     450:	1f 93       	push	r17
     452:	cf 93       	push	r28
	sequence_len = EASY_LENGTH;
     454:	8a e0       	ldi	r24, 0x0A	; 10
     456:	80 93 a2 21 	sts	0x21A2, r24	; 0x8021a2 <sequence_len>
	sequence = (uint8_t *)malloc(EASY_LENGTH);
     45a:	8a e0       	ldi	r24, 0x0A	; 10
     45c:	90 e0       	ldi	r25, 0x00	; 0
     45e:	0e 94 90 12 	call	0x2520	; 0x2520 <malloc>
     462:	80 93 d1 21 	sts	0x21D1, r24	; 0x8021d1 <sequence>
     466:	90 93 d2 21 	sts	0x21D2, r25	; 0x8021d2 <sequence+0x1>
	srand(get_seed());
     46a:	0e 94 87 0e 	call	0x1d0e	; 0x1d0e <get_seed>
     46e:	0e 94 02 14 	call	0x2804	; 0x2804 <srand>
	for (uint8_t i = 0; i < EASY_LENGTH; i++)
     472:	c0 e0       	ldi	r28, 0x00	; 0
     474:	18 c0       	rjmp	.+48     	; 0x4a6 <easy_sequence_init+0x58>
	{
		sequence[i] = 0x01 << (rand() % 4);
     476:	00 91 d1 21 	lds	r16, 0x21D1	; 0x8021d1 <sequence>
     47a:	10 91 d2 21 	lds	r17, 0x21D2	; 0x8021d2 <sequence+0x1>
     47e:	0c 0f       	add	r16, r28
     480:	11 1d       	adc	r17, r1
     482:	0e 94 fd 13 	call	0x27fa	; 0x27fa <rand>
     486:	83 70       	andi	r24, 0x03	; 3
     488:	90 78       	andi	r25, 0x80	; 128
     48a:	99 23       	and	r25, r25
     48c:	24 f4       	brge	.+8      	; 0x496 <easy_sequence_init+0x48>
     48e:	01 97       	sbiw	r24, 0x01	; 1
     490:	8c 6f       	ori	r24, 0xFC	; 252
     492:	9f 6f       	ori	r25, 0xFF	; 255
     494:	01 96       	adiw	r24, 0x01	; 1
     496:	91 e0       	ldi	r25, 0x01	; 1
     498:	01 c0       	rjmp	.+2      	; 0x49c <easy_sequence_init+0x4e>
     49a:	99 0f       	add	r25, r25
     49c:	8a 95       	dec	r24
     49e:	ea f7       	brpl	.-6      	; 0x49a <easy_sequence_init+0x4c>
     4a0:	f8 01       	movw	r30, r16
     4a2:	90 83       	st	Z, r25
void easy_sequence_init()
{
	sequence_len = EASY_LENGTH;
	sequence = (uint8_t *)malloc(EASY_LENGTH);
	srand(get_seed());
	for (uint8_t i = 0; i < EASY_LENGTH; i++)
     4a4:	cf 5f       	subi	r28, 0xFF	; 255
     4a6:	ca 30       	cpi	r28, 0x0A	; 10
     4a8:	30 f3       	brcs	.-52     	; 0x476 <easy_sequence_init+0x28>
	{
		sequence[i] = 0x01 << (rand() % 4);
	}
	
}
     4aa:	cf 91       	pop	r28
     4ac:	1f 91       	pop	r17
     4ae:	0f 91       	pop	r16
     4b0:	08 95       	ret

000004b2 <hard_sequence_init>:

void hard_sequence_init()
{
     4b2:	0f 93       	push	r16
     4b4:	1f 93       	push	r17
     4b6:	cf 93       	push	r28
	sequence_len = HARD_LENGTH;
     4b8:	8f e0       	ldi	r24, 0x0F	; 15
     4ba:	80 93 a2 21 	sts	0x21A2, r24	; 0x8021a2 <sequence_len>
	sequence = (uint8_t *)malloc(HARD_LENGTH);
     4be:	8f e0       	ldi	r24, 0x0F	; 15
     4c0:	90 e0       	ldi	r25, 0x00	; 0
     4c2:	0e 94 90 12 	call	0x2520	; 0x2520 <malloc>
     4c6:	80 93 d1 21 	sts	0x21D1, r24	; 0x8021d1 <sequence>
     4ca:	90 93 d2 21 	sts	0x21D2, r25	; 0x8021d2 <sequence+0x1>
	srand(get_seed());
     4ce:	0e 94 87 0e 	call	0x1d0e	; 0x1d0e <get_seed>
     4d2:	0e 94 02 14 	call	0x2804	; 0x2804 <srand>
	for (uint8_t i = 0; i < HARD_LENGTH; i++)
     4d6:	c0 e0       	ldi	r28, 0x00	; 0
     4d8:	10 c0       	rjmp	.+32     	; 0x4fa <hard_sequence_init+0x48>
	{
		sequence[i] = (rand() % 15) + 1;
     4da:	00 91 d1 21 	lds	r16, 0x21D1	; 0x8021d1 <sequence>
     4de:	10 91 d2 21 	lds	r17, 0x21D2	; 0x8021d2 <sequence+0x1>
     4e2:	0c 0f       	add	r16, r28
     4e4:	11 1d       	adc	r17, r1
     4e6:	0e 94 fd 13 	call	0x27fa	; 0x27fa <rand>
     4ea:	6f e0       	ldi	r22, 0x0F	; 15
     4ec:	70 e0       	ldi	r23, 0x00	; 0
     4ee:	0e 94 68 12 	call	0x24d0	; 0x24d0 <__divmodhi4>
     4f2:	8f 5f       	subi	r24, 0xFF	; 255
     4f4:	f8 01       	movw	r30, r16
     4f6:	80 83       	st	Z, r24
void hard_sequence_init()
{
	sequence_len = HARD_LENGTH;
	sequence = (uint8_t *)malloc(HARD_LENGTH);
	srand(get_seed());
	for (uint8_t i = 0; i < HARD_LENGTH; i++)
     4f8:	cf 5f       	subi	r28, 0xFF	; 255
     4fa:	cf 30       	cpi	r28, 0x0F	; 15
     4fc:	70 f3       	brcs	.-36     	; 0x4da <hard_sequence_init+0x28>
	{
		sequence[i] = (rand() % 15) + 1;
	}
}
     4fe:	cf 91       	pop	r28
     500:	1f 91       	pop	r17
     502:	0f 91       	pop	r16
     504:	08 95       	ret

00000506 <games_init>:

void games_init(GameModes mode)
{

	if (mode == easy)
     506:	81 11       	cpse	r24, r1
     508:	19 c0       	rjmp	.+50     	; 0x53c <games_init+0x36>
	{
		sequence_init = easy_sequence_init;
     50a:	87 e2       	ldi	r24, 0x27	; 39
     50c:	92 e0       	ldi	r25, 0x02	; 2
     50e:	80 93 d9 21 	sts	0x21D9, r24	; 0x8021d9 <sequence_init>
     512:	90 93 da 21 	sts	0x21DA, r25	; 0x8021da <sequence_init+0x1>
		handle_game_won_state = game_won_easy;
     516:	8d ed       	ldi	r24, 0xDD	; 221
     518:	91 e0       	ldi	r25, 0x01	; 1
     51a:	80 93 d5 21 	sts	0x21D5, r24	; 0x8021d5 <handle_game_won_state>
     51e:	90 93 d6 21 	sts	0x21D6, r25	; 0x8021d6 <handle_game_won_state+0x1>
		start_notes = easy_game_start_notes;
     522:	8e e1       	ldi	r24, 0x1E	; 30
     524:	90 e2       	ldi	r25, 0x20	; 32
     526:	80 93 d7 21 	sts	0x21D7, r24	; 0x8021d7 <start_notes>
     52a:	90 93 d8 21 	sts	0x21D8, r25	; 0x8021d8 <start_notes+0x1>
		start_size = sizeof(easy_game_start_notes);
     52e:	84 e0       	ldi	r24, 0x04	; 4
     530:	90 e0       	ldi	r25, 0x00	; 0
     532:	80 93 d3 21 	sts	0x21D3, r24	; 0x8021d3 <start_size>
     536:	90 93 d4 21 	sts	0x21D4, r25	; 0x8021d4 <start_size+0x1>
     53a:	08 95       	ret
	}
	else
	{
		sequence_init = hard_sequence_init;
     53c:	89 e5       	ldi	r24, 0x59	; 89
     53e:	92 e0       	ldi	r25, 0x02	; 2
     540:	80 93 d9 21 	sts	0x21D9, r24	; 0x8021d9 <sequence_init>
     544:	90 93 da 21 	sts	0x21DA, r25	; 0x8021da <sequence_init+0x1>
		handle_game_won_state = game_won_hard;
     548:	83 e1       	ldi	r24, 0x13	; 19
     54a:	92 e0       	ldi	r25, 0x02	; 2
     54c:	80 93 d5 21 	sts	0x21D5, r24	; 0x8021d5 <handle_game_won_state>
     550:	90 93 d6 21 	sts	0x21D6, r25	; 0x8021d6 <handle_game_won_state+0x1>
		start_notes = hard_game_start_notes;
     554:	8a e1       	ldi	r24, 0x1A	; 26
     556:	90 e2       	ldi	r25, 0x20	; 32
     558:	80 93 d7 21 	sts	0x21D7, r24	; 0x8021d7 <start_notes>
     55c:	90 93 d8 21 	sts	0x21D8, r25	; 0x8021d8 <start_notes+0x1>
		start_size = sizeof(hard_game_start_notes);
     560:	84 e0       	ldi	r24, 0x04	; 4
     562:	90 e0       	ldi	r25, 0x00	; 0
     564:	80 93 d3 21 	sts	0x21D3, r24	; 0x8021d3 <start_size>
     568:	90 93 d4 21 	sts	0x21D4, r25	; 0x8021d4 <start_size+0x1>
     56c:	08 95       	ret

0000056e <games_step>:
	
	
}

void games_step(uint8_t buttons)
{
     56e:	cf 93       	push	r28
     570:	c8 2f       	mov	r28, r24
	switch (game_state)
     572:	80 91 a0 21 	lds	r24, 0x21A0	; 0x8021a0 <__data_end>
     576:	82 30       	cpi	r24, 0x02	; 2
     578:	09 f4       	brne	.+2      	; 0x57c <games_step+0xe>
     57a:	ab c0       	rjmp	.+342    	; 0x6d2 <games_step+0x164>
     57c:	30 f4       	brcc	.+12     	; 0x58a <games_step+0x1c>
     57e:	88 23       	and	r24, r24
     580:	59 f0       	breq	.+22     	; 0x598 <games_step+0x2a>
     582:	81 30       	cpi	r24, 0x01	; 1
     584:	09 f4       	brne	.+2      	; 0x588 <games_step+0x1a>
     586:	4c c0       	rjmp	.+152    	; 0x620 <games_step+0xb2>
     588:	46 c1       	rjmp	.+652    	; 0x816 <__DATA_REGION_LENGTH__+0x16>
     58a:	83 30       	cpi	r24, 0x03	; 3
     58c:	09 f4       	brne	.+2      	; 0x590 <games_step+0x22>
     58e:	08 c1       	rjmp	.+528    	; 0x7a0 <games_step+0x232>
     590:	84 30       	cpi	r24, 0x04	; 4
     592:	09 f4       	brne	.+2      	; 0x596 <games_step+0x28>
     594:	0b c1       	rjmp	.+534    	; 0x7ac <games_step+0x23e>
     596:	3f c1       	rjmp	.+638    	; 0x816 <__DATA_REGION_LENGTH__+0x16>
	{
		case game_start:
		
			if (!(sequence_initialized))
     598:	80 91 a1 21 	lds	r24, 0x21A1	; 0x8021a1 <sequence_initialized>
     59c:	81 11       	cpse	r24, r1
     59e:	08 c0       	rjmp	.+16     	; 0x5b0 <games_step+0x42>
			{
				sequence_init();
     5a0:	e0 91 d9 21 	lds	r30, 0x21D9	; 0x8021d9 <sequence_init>
     5a4:	f0 91 da 21 	lds	r31, 0x21DA	; 0x8021da <sequence_init+0x1>
     5a8:	09 95       	icall
				sequence_initialized = 1;
     5aa:	81 e0       	ldi	r24, 0x01	; 1
     5ac:	80 93 a1 21 	sts	0x21A1, r24	; 0x8021a1 <sequence_initialized>
			}		
		
			play_lights_game(expander_read_ports(), 0);
     5b0:	0e 94 24 05 	call	0xa48	; 0xa48 <expander_read_ports>
     5b4:	60 e0       	ldi	r22, 0x00	; 0
     5b6:	0e 94 a2 08 	call	0x1144	; 0x1144 <play_lights_game>
			if (play_index == start_size && !(note_player_playing()))
     5ba:	80 91 a6 21 	lds	r24, 0x21A6	; 0x8021a6 <play_index>
     5be:	90 e0       	ldi	r25, 0x00	; 0
     5c0:	20 91 d3 21 	lds	r18, 0x21D3	; 0x8021d3 <start_size>
     5c4:	30 91 d4 21 	lds	r19, 0x21D4	; 0x8021d4 <start_size+0x1>
     5c8:	82 17       	cp	r24, r18
     5ca:	93 07       	cpc	r25, r19
     5cc:	a9 f4       	brne	.+42     	; 0x5f8 <games_step+0x8a>
     5ce:	0e 94 84 0e 	call	0x1d08	; 0x1d08 <note_player_playing>
     5d2:	81 11       	cpse	r24, r1
     5d4:	11 c0       	rjmp	.+34     	; 0x5f8 <games_step+0x8a>
			{
				play_lights_game(expander_read_ports(), 0);
     5d6:	0e 94 24 05 	call	0xa48	; 0xa48 <expander_read_ports>
     5da:	60 e0       	ldi	r22, 0x00	; 0
     5dc:	0e 94 a2 08 	call	0x1144	; 0x1144 <play_lights_game>
				game_state = play_sequence;
     5e0:	81 e0       	ldi	r24, 0x01	; 1
     5e2:	80 93 a0 21 	sts	0x21A0, r24	; 0x8021a0 <__data_end>
				timer_counter = 0;
     5e6:	10 92 a3 21 	sts	0x21A3, r1	; 0x8021a3 <timer_counter>
     5ea:	10 92 a4 21 	sts	0x21A4, r1	; 0x8021a4 <timer_counter+0x1>
				play_index = 0;
     5ee:	10 92 a6 21 	sts	0x21A6, r1	; 0x8021a6 <play_index>
				progress_index = 1;
     5f2:	80 93 a5 21 	sts	0x21A5, r24	; 0x8021a5 <progress_index>
				break;
     5f6:	0f c1       	rjmp	.+542    	; 0x816 <__DATA_REGION_LENGTH__+0x16>
			}
			
			if (!(note_player_playing()))
     5f8:	0e 94 84 0e 	call	0x1d08	; 0x1d08 <note_player_playing>
     5fc:	81 11       	cpse	r24, r1
     5fe:	0b c1       	rjmp	.+534    	; 0x816 <__DATA_REGION_LENGTH__+0x16>
			{
				note_play(start_notes[play_index++]);
     600:	e0 91 d7 21 	lds	r30, 0x21D7	; 0x8021d7 <start_notes>
     604:	f0 91 d8 21 	lds	r31, 0x21D8	; 0x8021d8 <start_notes+0x1>
     608:	80 91 a6 21 	lds	r24, 0x21A6	; 0x8021a6 <play_index>
     60c:	91 e0       	ldi	r25, 0x01	; 1
     60e:	98 0f       	add	r25, r24
     610:	90 93 a6 21 	sts	0x21A6, r25	; 0x8021a6 <play_index>
     614:	e8 0f       	add	r30, r24
     616:	f1 1d       	adc	r31, r1
     618:	80 81       	ld	r24, Z
     61a:	0e 94 54 0e 	call	0x1ca8	; 0x1ca8 <note_play>
     61e:	fb c0       	rjmp	.+502    	; 0x816 <__DATA_REGION_LENGTH__+0x16>
			

			break;
		case play_sequence:
		
			if (timer_counter < STEP_PAUSE)
     620:	80 91 a3 21 	lds	r24, 0x21A3	; 0x8021a3 <timer_counter>
     624:	90 91 a4 21 	lds	r25, 0x21A4	; 0x8021a4 <timer_counter+0x1>
     628:	85 30       	cpi	r24, 0x05	; 5
     62a:	91 05       	cpc	r25, r1
     62c:	30 f4       	brcc	.+12     	; 0x63a <games_step+0xcc>
			{
				timer_counter++;
     62e:	01 96       	adiw	r24, 0x01	; 1
     630:	80 93 a3 21 	sts	0x21A3, r24	; 0x8021a3 <timer_counter>
     634:	90 93 a4 21 	sts	0x21A4, r25	; 0x8021a4 <timer_counter+0x1>
				break;
     638:	ee c0       	rjmp	.+476    	; 0x816 <__DATA_REGION_LENGTH__+0x16>
			}
		
			if (timer_counter < NOTE_PAUSE)
     63a:	08 97       	sbiw	r24, 0x08	; 8
     63c:	78 f4       	brcc	.+30     	; 0x65c <games_step+0xee>
			{
				play_lights_game(expander_read_ports(), 0);
     63e:	0e 94 24 05 	call	0xa48	; 0xa48 <expander_read_ports>
     642:	60 e0       	ldi	r22, 0x00	; 0
     644:	0e 94 a2 08 	call	0x1144	; 0x1144 <play_lights_game>
				timer_counter++;
     648:	80 91 a3 21 	lds	r24, 0x21A3	; 0x8021a3 <timer_counter>
     64c:	90 91 a4 21 	lds	r25, 0x21A4	; 0x8021a4 <timer_counter+0x1>
     650:	01 96       	adiw	r24, 0x01	; 1
     652:	80 93 a3 21 	sts	0x21A3, r24	; 0x8021a3 <timer_counter>
     656:	90 93 a4 21 	sts	0x21A4, r25	; 0x8021a4 <timer_counter+0x1>
				break;
     65a:	dd c0       	rjmp	.+442    	; 0x816 <__DATA_REGION_LENGTH__+0x16>
			}
		
			if (play_index == progress_index)
     65c:	90 91 a6 21 	lds	r25, 0x21A6	; 0x8021a6 <play_index>
     660:	80 91 a5 21 	lds	r24, 0x21A5	; 0x8021a5 <progress_index>
     664:	98 13       	cpse	r25, r24
     666:	0f c0       	rjmp	.+30     	; 0x686 <games_step+0x118>
			{
			
				play_lights_game(expander_read_ports(), 0);
     668:	0e 94 24 05 	call	0xa48	; 0xa48 <expander_read_ports>
     66c:	60 e0       	ldi	r22, 0x00	; 0
     66e:	0e 94 a2 08 	call	0x1144	; 0x1144 <play_lights_game>
				game_state = get_input;
     672:	82 e0       	ldi	r24, 0x02	; 2
     674:	80 93 a0 21 	sts	0x21A0, r24	; 0x8021a0 <__data_end>
				timer_counter = 0;
     678:	10 92 a3 21 	sts	0x21A3, r1	; 0x8021a3 <timer_counter>
     67c:	10 92 a4 21 	sts	0x21A4, r1	; 0x8021a4 <timer_counter+0x1>
				play_index = 0;
     680:	10 92 a6 21 	sts	0x21A6, r1	; 0x8021a6 <play_index>

				break;
     684:	c8 c0       	rjmp	.+400    	; 0x816 <__DATA_REGION_LENGTH__+0x16>
			}
		
			if (!(note_player_playing()))
     686:	0e 94 84 0e 	call	0x1d08	; 0x1d08 <note_player_playing>
     68a:	81 11       	cpse	r24, r1
     68c:	c4 c0       	rjmp	.+392    	; 0x816 <__DATA_REGION_LENGTH__+0x16>
			{
				play_lights_game(expander_read_ports(), sequence[play_index]);
     68e:	80 91 a6 21 	lds	r24, 0x21A6	; 0x8021a6 <play_index>
     692:	e0 91 d1 21 	lds	r30, 0x21D1	; 0x8021d1 <sequence>
     696:	f0 91 d2 21 	lds	r31, 0x21D2	; 0x8021d2 <sequence+0x1>
     69a:	e8 0f       	add	r30, r24
     69c:	f1 1d       	adc	r31, r1
     69e:	c0 81       	ld	r28, Z
     6a0:	0e 94 24 05 	call	0xa48	; 0xa48 <expander_read_ports>
     6a4:	6c 2f       	mov	r22, r28
     6a6:	0e 94 a2 08 	call	0x1144	; 0x1144 <play_lights_game>
				note_play(sequence[play_index++]);
     6aa:	e0 91 d1 21 	lds	r30, 0x21D1	; 0x8021d1 <sequence>
     6ae:	f0 91 d2 21 	lds	r31, 0x21D2	; 0x8021d2 <sequence+0x1>
     6b2:	80 91 a6 21 	lds	r24, 0x21A6	; 0x8021a6 <play_index>
     6b6:	91 e0       	ldi	r25, 0x01	; 1
     6b8:	98 0f       	add	r25, r24
     6ba:	90 93 a6 21 	sts	0x21A6, r25	; 0x8021a6 <play_index>
     6be:	e8 0f       	add	r30, r24
     6c0:	f1 1d       	adc	r31, r1
     6c2:	80 81       	ld	r24, Z
     6c4:	0e 94 54 0e 	call	0x1ca8	; 0x1ca8 <note_play>
				timer_counter = 0;
     6c8:	10 92 a3 21 	sts	0x21A3, r1	; 0x8021a3 <timer_counter>
     6cc:	10 92 a4 21 	sts	0x21A4, r1	; 0x8021a4 <timer_counter+0x1>
     6d0:	a2 c0       	rjmp	.+324    	; 0x816 <__DATA_REGION_LENGTH__+0x16>
		
		
			break;
		case get_input:
		
			play_lights_game(expander_read_ports(), buttons);
     6d2:	0e 94 24 05 	call	0xa48	; 0xa48 <expander_read_ports>
     6d6:	6c 2f       	mov	r22, r28
     6d8:	0e 94 a2 08 	call	0x1144	; 0x1144 <play_lights_game>
		
			if (timer_counter++ > INPUT_TIMEOUT && !(note_player_playing()))
     6dc:	80 91 a3 21 	lds	r24, 0x21A3	; 0x8021a3 <timer_counter>
     6e0:	90 91 a4 21 	lds	r25, 0x21A4	; 0x8021a4 <timer_counter+0x1>
     6e4:	9c 01       	movw	r18, r24
     6e6:	2f 5f       	subi	r18, 0xFF	; 255
     6e8:	3f 4f       	sbci	r19, 0xFF	; 255
     6ea:	20 93 a3 21 	sts	0x21A3, r18	; 0x8021a3 <timer_counter>
     6ee:	30 93 a4 21 	sts	0x21A4, r19	; 0x8021a4 <timer_counter+0x1>
     6f2:	4a 97       	sbiw	r24, 0x1a	; 26
     6f4:	98 f0       	brcs	.+38     	; 0x71c <games_step+0x1ae>
     6f6:	0e 94 84 0e 	call	0x1d08	; 0x1d08 <note_player_playing>
     6fa:	81 11       	cpse	r24, r1
     6fc:	0f c0       	rjmp	.+30     	; 0x71c <games_step+0x1ae>
			{
				play_lights_game(expander_read_ports(), 0);
     6fe:	0e 94 24 05 	call	0xa48	; 0xa48 <expander_read_ports>
     702:	60 e0       	ldi	r22, 0x00	; 0
     704:	0e 94 a2 08 	call	0x1144	; 0x1144 <play_lights_game>
				game_state = game_lost;
     708:	84 e0       	ldi	r24, 0x04	; 4
     70a:	80 93 a0 21 	sts	0x21A0, r24	; 0x8021a0 <__data_end>
				timer_counter = 0;
     70e:	10 92 a3 21 	sts	0x21A3, r1	; 0x8021a3 <timer_counter>
     712:	10 92 a4 21 	sts	0x21A4, r1	; 0x8021a4 <timer_counter+0x1>
				play_index = 0;
     716:	10 92 a6 21 	sts	0x21A6, r1	; 0x8021a6 <play_index>

				break;
     71a:	7d c0       	rjmp	.+250    	; 0x816 <__DATA_REGION_LENGTH__+0x16>
			}

		
			if (buttons && expander_get_val_changed() && !(note_player_playing()))
     71c:	cc 23       	and	r28, r28
     71e:	09 f4       	brne	.+2      	; 0x722 <games_step+0x1b4>
     720:	7a c0       	rjmp	.+244    	; 0x816 <__DATA_REGION_LENGTH__+0x16>
     722:	0e 94 59 05 	call	0xab2	; 0xab2 <expander_get_val_changed>
     726:	88 23       	and	r24, r24
     728:	09 f4       	brne	.+2      	; 0x72c <games_step+0x1be>
     72a:	75 c0       	rjmp	.+234    	; 0x816 <__DATA_REGION_LENGTH__+0x16>
     72c:	0e 94 84 0e 	call	0x1d08	; 0x1d08 <note_player_playing>
     730:	81 11       	cpse	r24, r1
     732:	71 c0       	rjmp	.+226    	; 0x816 <__DATA_REGION_LENGTH__+0x16>
			{
				timer_counter = 0;
     734:	10 92 a3 21 	sts	0x21A3, r1	; 0x8021a3 <timer_counter>
     738:	10 92 a4 21 	sts	0x21A4, r1	; 0x8021a4 <timer_counter+0x1>
			
				if (buttons == sequence[play_index])
     73c:	80 91 a6 21 	lds	r24, 0x21A6	; 0x8021a6 <play_index>
     740:	e0 91 d1 21 	lds	r30, 0x21D1	; 0x8021d1 <sequence>
     744:	f0 91 d2 21 	lds	r31, 0x21D2	; 0x8021d2 <sequence+0x1>
     748:	e8 0f       	add	r30, r24
     74a:	f1 1d       	adc	r31, r1
     74c:	80 81       	ld	r24, Z
     74e:	c8 13       	cpse	r28, r24
     750:	21 c0       	rjmp	.+66     	; 0x794 <games_step+0x226>
				{
					note_play(buttons);
     752:	8c 2f       	mov	r24, r28
     754:	0e 94 54 0e 	call	0x1ca8	; 0x1ca8 <note_play>
					play_index++;
     758:	80 91 a6 21 	lds	r24, 0x21A6	; 0x8021a6 <play_index>
     75c:	8f 5f       	subi	r24, 0xFF	; 255
     75e:	80 93 a6 21 	sts	0x21A6, r24	; 0x8021a6 <play_index>
				

					if (play_index == progress_index)
     762:	90 91 a5 21 	lds	r25, 0x21A5	; 0x8021a5 <progress_index>
     766:	89 13       	cpse	r24, r25
     768:	56 c0       	rjmp	.+172    	; 0x816 <__DATA_REGION_LENGTH__+0x16>
					{
						progress_index++;
     76a:	9f 5f       	subi	r25, 0xFF	; 255
     76c:	90 93 a5 21 	sts	0x21A5, r25	; 0x8021a5 <progress_index>
					
						if (progress_index > sequence_len)
     770:	80 91 a2 21 	lds	r24, 0x21A2	; 0x8021a2 <sequence_len>
     774:	89 17       	cp	r24, r25
     776:	20 f4       	brcc	.+8      	; 0x780 <games_step+0x212>
						{
							game_state = game_won;
     778:	83 e0       	ldi	r24, 0x03	; 3
     77a:	80 93 a0 21 	sts	0x21A0, r24	; 0x8021a0 <__data_end>
     77e:	03 c0       	rjmp	.+6      	; 0x786 <games_step+0x218>
						}
						else
						{
							game_state = play_sequence;
     780:	81 e0       	ldi	r24, 0x01	; 1
     782:	80 93 a0 21 	sts	0x21A0, r24	; 0x8021a0 <__data_end>
						}
					
						timer_counter = 0;
     786:	10 92 a3 21 	sts	0x21A3, r1	; 0x8021a3 <timer_counter>
     78a:	10 92 a4 21 	sts	0x21A4, r1	; 0x8021a4 <timer_counter+0x1>
						play_index = 0;
     78e:	10 92 a6 21 	sts	0x21A6, r1	; 0x8021a6 <play_index>
						break;
     792:	41 c0       	rjmp	.+130    	; 0x816 <__DATA_REGION_LENGTH__+0x16>
					}
				}
				else
				{
					game_state = game_lost;
     794:	84 e0       	ldi	r24, 0x04	; 4
     796:	80 93 a0 21 	sts	0x21A0, r24	; 0x8021a0 <__data_end>
					timer_counter = 0;
					play_index = 0;
     79a:	10 92 a6 21 	sts	0x21A6, r1	; 0x8021a6 <play_index>
					break;
     79e:	3b c0       	rjmp	.+118    	; 0x816 <__DATA_REGION_LENGTH__+0x16>
				}
			}
		
			break;
		case game_won:
			handle_game_won_state();
     7a0:	e0 91 d5 21 	lds	r30, 0x21D5	; 0x8021d5 <handle_game_won_state>
     7a4:	f0 91 d6 21 	lds	r31, 0x21D6	; 0x8021d6 <handle_game_won_state+0x1>
     7a8:	09 95       	icall
			break;
     7aa:	35 c0       	rjmp	.+106    	; 0x816 <__DATA_REGION_LENGTH__+0x16>
		case game_lost:
		
			play_lights_game_over();
     7ac:	0e 94 ed 08 	call	0x11da	; 0x11da <play_lights_game_over>
			if (!(note_player_playing()))
     7b0:	0e 94 84 0e 	call	0x1d08	; 0x1d08 <note_player_playing>
     7b4:	81 11       	cpse	r24, r1
     7b6:	2f c0       	rjmp	.+94     	; 0x816 <__DATA_REGION_LENGTH__+0x16>
			{
				if (play_index < sizeof(game_lost_notes))
     7b8:	e0 91 a6 21 	lds	r30, 0x21A6	; 0x8021a6 <play_index>
     7bc:	e4 30       	cpi	r30, 0x04	; 4
     7be:	78 f4       	brcc	.+30     	; 0x7de <games_step+0x270>
				{
					timer_counter = 0;
     7c0:	10 92 a3 21 	sts	0x21A3, r1	; 0x8021a3 <timer_counter>
     7c4:	10 92 a4 21 	sts	0x21A4, r1	; 0x8021a4 <timer_counter+0x1>
					note_play(game_lost_notes[play_index++]);
     7c8:	81 e0       	ldi	r24, 0x01	; 1
     7ca:	8e 0f       	add	r24, r30
     7cc:	80 93 a6 21 	sts	0x21A6, r24	; 0x8021a6 <play_index>
     7d0:	f0 e0       	ldi	r31, 0x00	; 0
     7d2:	e6 5f       	subi	r30, 0xF6	; 246
     7d4:	ff 4d       	sbci	r31, 0xDF	; 223
     7d6:	80 81       	ld	r24, Z
     7d8:	0e 94 54 0e 	call	0x1ca8	; 0x1ca8 <note_play>
     7dc:	1c c0       	rjmp	.+56     	; 0x816 <__DATA_REGION_LENGTH__+0x16>
				}
				else
				{
					if (timer_counter++ > STEP_PAUSE)
     7de:	80 91 a3 21 	lds	r24, 0x21A3	; 0x8021a3 <timer_counter>
     7e2:	90 91 a4 21 	lds	r25, 0x21A4	; 0x8021a4 <timer_counter+0x1>
     7e6:	9c 01       	movw	r18, r24
     7e8:	2f 5f       	subi	r18, 0xFF	; 255
     7ea:	3f 4f       	sbci	r19, 0xFF	; 255
     7ec:	20 93 a3 21 	sts	0x21A3, r18	; 0x8021a3 <timer_counter>
     7f0:	30 93 a4 21 	sts	0x21A4, r19	; 0x8021a4 <timer_counter+0x1>
     7f4:	06 97       	sbiw	r24, 0x06	; 6
     7f6:	78 f0       	brcs	.+30     	; 0x816 <__DATA_REGION_LENGTH__+0x16>
					{
						play_index = 0;
     7f8:	10 92 a6 21 	sts	0x21A6, r1	; 0x8021a6 <play_index>
						timer_counter = 0;
     7fc:	10 92 a3 21 	sts	0x21A3, r1	; 0x8021a3 <timer_counter>
     800:	10 92 a4 21 	sts	0x21A4, r1	; 0x8021a4 <timer_counter+0x1>
						sequence_initialized = 0;
     804:	10 92 a1 21 	sts	0x21A1, r1	; 0x8021a1 <sequence_initialized>
						game_state = game_start;
     808:	10 92 a0 21 	sts	0x21A0, r1	; 0x8021a0 <__data_end>
						play_lights_game(expander_read_ports(), 0);
     80c:	0e 94 24 05 	call	0xa48	; 0xa48 <expander_read_ports>
     810:	60 e0       	ldi	r22, 0x00	; 0
     812:	0e 94 a2 08 	call	0x1144	; 0x1144 <play_lights_game>
			}

			break;
	}
	
     816:	cf 91       	pop	r28
     818:	08 95       	ret

0000081a <twi_init>:
	TWIC_MASTER_ADDR=(device_addr << 1)|TWI_WRITE;
	
	while(twi_transfer_complete!=1);

	return 0;
}
     81a:	84 e9       	ldi	r24, 0x94	; 148
     81c:	80 93 85 04 	sts	0x0485, r24	; 0x800485 <__TEXT_REGION_LENGTH__+0x7fb485>
     820:	10 92 80 04 	sts	0x0480, r1	; 0x800480 <__TEXT_REGION_LENGTH__+0x7fb480>
     824:	e1 e8       	ldi	r30, 0x81	; 129
     826:	f4 e0       	ldi	r31, 0x04	; 4
     828:	80 81       	ld	r24, Z
     82a:	88 6f       	ori	r24, 0xF8	; 248
     82c:	80 83       	st	Z, r24
     82e:	10 92 82 04 	sts	0x0482, r1	; 0x800482 <__TEXT_REGION_LENGTH__+0x7fb482>
     832:	10 92 83 04 	sts	0x0483, r1	; 0x800483 <__TEXT_REGION_LENGTH__+0x7fb483>
     836:	e4 e8       	ldi	r30, 0x84	; 132
     838:	f4 e0       	ldi	r31, 0x04	; 4
     83a:	80 81       	ld	r24, Z
     83c:	8d 6c       	ori	r24, 0xCD	; 205
     83e:	80 83       	st	Z, r24
     840:	08 95       	ret

00000842 <twi_read>:
     842:	40 93 de 21 	sts	0x21DE, r20	; 0x8021de <twi_no_of_bytes>
     846:	50 93 df 21 	sts	0x21DF, r21	; 0x8021df <twi_no_of_bytes+0x1>
     84a:	10 92 e1 21 	sts	0x21E1, r1	; 0x8021e1 <twi_data_count>
     84e:	10 92 e2 21 	sts	0x21E2, r1	; 0x8021e2 <twi_data_count+0x1>
     852:	10 92 e3 21 	sts	0x21E3, r1	; 0x8021e3 <twi_transfer_complete>
     856:	60 93 e5 21 	sts	0x21E5, r22	; 0x8021e5 <twi_data>
     85a:	70 93 e6 21 	sts	0x21E6, r23	; 0x8021e6 <twi_data+0x1>
     85e:	90 e0       	ldi	r25, 0x00	; 0
     860:	88 0f       	add	r24, r24
     862:	99 1f       	adc	r25, r25
     864:	81 60       	ori	r24, 0x01	; 1
     866:	80 93 86 04 	sts	0x0486, r24	; 0x800486 <__TEXT_REGION_LENGTH__+0x7fb486>
     86a:	80 91 e3 21 	lds	r24, 0x21E3	; 0x8021e3 <twi_transfer_complete>
     86e:	81 30       	cpi	r24, 0x01	; 1
     870:	e1 f7       	brne	.-8      	; 0x86a <twi_read+0x28>
     872:	80 e0       	ldi	r24, 0x00	; 0
     874:	08 95       	ret

00000876 <twi_write>:

uint8_t twi_write(uint8_t device_addr, uint8_t * data, uint16_t len)
{
	
	twi_repeat_mode = 0;
     876:	10 92 e0 21 	sts	0x21E0, r1	; 0x8021e0 <twi_repeat_mode>
	
	twi_no_of_bytes=len;
     87a:	40 93 de 21 	sts	0x21DE, r20	; 0x8021de <twi_no_of_bytes>
     87e:	50 93 df 21 	sts	0x21DF, r21	; 0x8021df <twi_no_of_bytes+0x1>
	
	twi_data_count=0;
     882:	10 92 e1 21 	sts	0x21E1, r1	; 0x8021e1 <twi_data_count>
     886:	10 92 e2 21 	sts	0x21E2, r1	; 0x8021e2 <twi_data_count+0x1>
	
	twi_transfer_complete=0;
     88a:	10 92 e3 21 	sts	0x21E3, r1	; 0x8021e3 <twi_transfer_complete>
	
	twi_data=data;
     88e:	60 93 e5 21 	sts	0x21E5, r22	; 0x8021e5 <twi_data>
     892:	70 93 e6 21 	sts	0x21E6, r23	; 0x8021e6 <twi_data+0x1>
	

	TWIC_MASTER_ADDR=(device_addr << 1)|TWI_WRITE;
     896:	88 0f       	add	r24, r24
     898:	80 93 86 04 	sts	0x0486, r24	; 0x800486 <__TEXT_REGION_LENGTH__+0x7fb486>
	
	while(twi_transfer_complete!=1);
     89c:	80 91 e3 21 	lds	r24, 0x21E3	; 0x8021e3 <twi_transfer_complete>
     8a0:	81 30       	cpi	r24, 0x01	; 1
     8a2:	e1 f7       	brne	.-8      	; 0x89c <twi_write+0x26>
	
	return 0;
}
     8a4:	80 e0       	ldi	r24, 0x00	; 0
     8a6:	08 95       	ret

000008a8 <__vector_11>:

ISR(TWIC_TWIM_vect)
{
     8a8:	1f 92       	push	r1
     8aa:	0f 92       	push	r0
     8ac:	0f b6       	in	r0, 0x3f	; 63
     8ae:	0f 92       	push	r0
     8b0:	11 24       	eor	r1, r1
     8b2:	2f 93       	push	r18
     8b4:	3f 93       	push	r19
     8b6:	4f 93       	push	r20
     8b8:	5f 93       	push	r21
     8ba:	8f 93       	push	r24
     8bc:	9f 93       	push	r25
     8be:	ef 93       	push	r30
     8c0:	ff 93       	push	r31
	//If TWI arbitration is lost send STOP
	
	if(TWIC_MASTER_STATUS & (1<<TWI_MASTER_ARBLOST_bp))
     8c2:	80 91 84 04 	lds	r24, 0x0484	; 0x800484 <__TEXT_REGION_LENGTH__+0x7fb484>
     8c6:	83 ff       	sbrs	r24, 3
     8c8:	03 c0       	rjmp	.+6      	; 0x8d0 <__vector_11+0x28>
	{
		TWIC_MASTER_CTRLC=(1<<TWI_MASTER_CMD1_bp)|(1<<TWI_MASTER_CMD0_bp); //send stop condition
     8ca:	83 e0       	ldi	r24, 0x03	; 3
     8cc:	80 93 83 04 	sts	0x0483, r24	; 0x800483 <__TEXT_REGION_LENGTH__+0x7fb483>
	}
	
	//If TWI bus error flag is set or NACK received then send STOP
	
	if((TWIC_MASTER_STATUS & (1<<TWI_MASTER_BUSERR_bp))||(TWIC_MASTER_STATUS & (1<<TWI_MASTER_RXACK_bp)))
     8d0:	80 91 84 04 	lds	r24, 0x0484	; 0x800484 <__TEXT_REGION_LENGTH__+0x7fb484>
     8d4:	82 fd       	sbrc	r24, 2
     8d6:	04 c0       	rjmp	.+8      	; 0x8e0 <__vector_11+0x38>
     8d8:	80 91 84 04 	lds	r24, 0x0484	; 0x800484 <__TEXT_REGION_LENGTH__+0x7fb484>
     8dc:	84 ff       	sbrs	r24, 4
     8de:	08 c0       	rjmp	.+16     	; 0x8f0 <__vector_11+0x48>
	{
		TWIC_MASTER_CTRLC=TWI_MASTER_CMD_STOP_gc; //send stop condition
     8e0:	e3 e8       	ldi	r30, 0x83	; 131
     8e2:	f4 e0       	ldi	r31, 0x04	; 4
     8e4:	83 e0       	ldi	r24, 0x03	; 3
     8e6:	80 83       	st	Z, r24
		TWIC_MASTER_CTRLC=TWI_MASTER_BUSSTATE_IDLE_gc;
     8e8:	81 e0       	ldi	r24, 0x01	; 1
     8ea:	80 83       	st	Z, r24
		twi_transfer_complete = 1;
     8ec:	80 93 e3 21 	sts	0x21E3, r24	; 0x8021e3 <twi_transfer_complete>
	}

	if(twi_transfer_complete)
     8f0:	80 91 e3 21 	lds	r24, 0x21E3	; 0x8021e3 <twi_transfer_complete>
     8f4:	88 23       	and	r24, r24
     8f6:	31 f0       	breq	.+12     	; 0x904 <__vector_11+0x5c>
	{
		TWIC_MASTER_STATUS |= TWI_MASTER_WIF_bm;
     8f8:	e4 e8       	ldi	r30, 0x84	; 132
     8fa:	f4 e0       	ldi	r31, 0x04	; 4
     8fc:	80 81       	ld	r24, Z
     8fe:	80 64       	ori	r24, 0x40	; 64
     900:	80 83       	st	Z, r24
		return;
     902:	79 c0       	rjmp	.+242    	; 0x9f6 <__vector_11+0x14e>
	}
	//If TWI write interrupt flag is set
	
	if(TWIC_MASTER_STATUS & (1<<TWI_MASTER_WIF_bp))
     904:	80 91 84 04 	lds	r24, 0x0484	; 0x800484 <__TEXT_REGION_LENGTH__+0x7fb484>
     908:	86 ff       	sbrs	r24, 6
     90a:	47 c0       	rjmp	.+142    	; 0x99a <__vector_11+0xf2>
	{
		if(!(TWIC_MASTER_STATUS & (1<<TWI_MASTER_RXACK_bp)))      //check whether acknowledge is received or not
     90c:	80 91 84 04 	lds	r24, 0x0484	; 0x800484 <__TEXT_REGION_LENGTH__+0x7fb484>
     910:	84 fd       	sbrc	r24, 4
     912:	43 c0       	rjmp	.+134    	; 0x99a <__vector_11+0xf2>
		{
			if (twi_repeat_mode)
     914:	80 91 e0 21 	lds	r24, 0x21E0	; 0x8021e0 <twi_repeat_mode>
     918:	88 23       	and	r24, r24
     91a:	c9 f0       	breq	.+50     	; 0x94e <__vector_11+0xa6>
			{
				if (twi_repeat_cmd_sent)
     91c:	80 91 dd 21 	lds	r24, 0x21DD	; 0x8021dd <twi_repeat_cmd_sent>
     920:	88 23       	and	r24, r24
     922:	69 f0       	breq	.+26     	; 0x93e <__vector_11+0x96>
				{
					TWIC_MASTER_DATA=twi_repeat_data; //using the pointer as a normal variable	
     924:	80 91 e4 21 	lds	r24, 0x21E4	; 0x8021e4 <twi_repeat_data>
     928:	80 93 87 04 	sts	0x0487, r24	; 0x800487 <__TEXT_REGION_LENGTH__+0x7fb487>
					twi_data_count++;
     92c:	80 91 e1 21 	lds	r24, 0x21E1	; 0x8021e1 <twi_data_count>
     930:	90 91 e2 21 	lds	r25, 0x21E2	; 0x8021e2 <twi_data_count+0x1>
     934:	01 96       	adiw	r24, 0x01	; 1
     936:	80 93 e1 21 	sts	0x21E1, r24	; 0x8021e1 <twi_data_count>
     93a:	90 93 e2 21 	sts	0x21E2, r25	; 0x8021e2 <twi_data_count+0x1>
				}
				{
					TWIC_MASTER_DATA=twi_repeat_cmd;
     93e:	80 91 e7 21 	lds	r24, 0x21E7	; 0x8021e7 <twi_repeat_cmd>
     942:	80 93 87 04 	sts	0x0487, r24	; 0x800487 <__TEXT_REGION_LENGTH__+0x7fb487>
					twi_repeat_cmd_sent = 1;
     946:	81 e0       	ldi	r24, 0x01	; 1
     948:	80 93 dd 21 	sts	0x21DD, r24	; 0x8021dd <twi_repeat_cmd_sent>
     94c:	15 c0       	rjmp	.+42     	; 0x978 <__vector_11+0xd0>
				}
				
			}
			else
			{
				TWIC_MASTER_DATA=twi_data[twi_data_count++];	
     94e:	20 91 e5 21 	lds	r18, 0x21E5	; 0x8021e5 <twi_data>
     952:	30 91 e6 21 	lds	r19, 0x21E6	; 0x8021e6 <twi_data+0x1>
     956:	80 91 e1 21 	lds	r24, 0x21E1	; 0x8021e1 <twi_data_count>
     95a:	90 91 e2 21 	lds	r25, 0x21E2	; 0x8021e2 <twi_data_count+0x1>
     95e:	ac 01       	movw	r20, r24
     960:	4f 5f       	subi	r20, 0xFF	; 255
     962:	5f 4f       	sbci	r21, 0xFF	; 255
     964:	40 93 e1 21 	sts	0x21E1, r20	; 0x8021e1 <twi_data_count>
     968:	50 93 e2 21 	sts	0x21E2, r21	; 0x8021e2 <twi_data_count+0x1>
     96c:	f9 01       	movw	r30, r18
     96e:	e8 0f       	add	r30, r24
     970:	f9 1f       	adc	r31, r25
     972:	80 81       	ld	r24, Z
     974:	80 93 87 04 	sts	0x0487, r24	; 0x800487 <__TEXT_REGION_LENGTH__+0x7fb487>
			}
			
			
			
			if(twi_data_count == twi_no_of_bytes)
     978:	20 91 e1 21 	lds	r18, 0x21E1	; 0x8021e1 <twi_data_count>
     97c:	30 91 e2 21 	lds	r19, 0x21E2	; 0x8021e2 <twi_data_count+0x1>
     980:	80 91 de 21 	lds	r24, 0x21DE	; 0x8021de <twi_no_of_bytes>
     984:	90 91 df 21 	lds	r25, 0x21DF	; 0x8021df <twi_no_of_bytes+0x1>
     988:	28 17       	cp	r18, r24
     98a:	39 07       	cpc	r19, r25
     98c:	31 f4       	brne	.+12     	; 0x99a <__vector_11+0xf2>
			{
				TWIC_MASTER_CTRLC=TWI_MASTER_CMD_STOP_gc; //send stop condition if all bytes are transferred
     98e:	83 e0       	ldi	r24, 0x03	; 3
     990:	80 93 83 04 	sts	0x0483, r24	; 0x800483 <__TEXT_REGION_LENGTH__+0x7fb483>
 				
				twi_transfer_complete=1;
     994:	81 e0       	ldi	r24, 0x01	; 1
     996:	80 93 e3 21 	sts	0x21E3, r24	; 0x8021e3 <twi_transfer_complete>
		}
	}
	
	//If RTC read interrupt flag is set
	
	if(TWIC_MASTER_STATUS & (1<<TWI_MASTER_RIF_bp))          //check whether read interrupt flag is set or not
     99a:	80 91 84 04 	lds	r24, 0x0484	; 0x800484 <__TEXT_REGION_LENGTH__+0x7fb484>
     99e:	88 23       	and	r24, r24
     9a0:	54 f5       	brge	.+84     	; 0x9f6 <__vector_11+0x14e>
	{
		twi_data[twi_data_count++]=TWIC_MASTER_DATA;
     9a2:	20 91 e5 21 	lds	r18, 0x21E5	; 0x8021e5 <twi_data>
     9a6:	30 91 e6 21 	lds	r19, 0x21E6	; 0x8021e6 <twi_data+0x1>
     9aa:	80 91 e1 21 	lds	r24, 0x21E1	; 0x8021e1 <twi_data_count>
     9ae:	90 91 e2 21 	lds	r25, 0x21E2	; 0x8021e2 <twi_data_count+0x1>
     9b2:	ac 01       	movw	r20, r24
     9b4:	4f 5f       	subi	r20, 0xFF	; 255
     9b6:	5f 4f       	sbci	r21, 0xFF	; 255
     9b8:	40 93 e1 21 	sts	0x21E1, r20	; 0x8021e1 <twi_data_count>
     9bc:	50 93 e2 21 	sts	0x21E2, r21	; 0x8021e2 <twi_data_count+0x1>
     9c0:	f9 01       	movw	r30, r18
     9c2:	e8 0f       	add	r30, r24
     9c4:	f9 1f       	adc	r31, r25
     9c6:	20 91 87 04 	lds	r18, 0x0487	; 0x800487 <__TEXT_REGION_LENGTH__+0x7fb487>
     9ca:	20 83       	st	Z, r18
		
		if(twi_data_count == twi_no_of_bytes)
     9cc:	20 91 e1 21 	lds	r18, 0x21E1	; 0x8021e1 <twi_data_count>
     9d0:	30 91 e2 21 	lds	r19, 0x21E2	; 0x8021e2 <twi_data_count+0x1>
     9d4:	80 91 de 21 	lds	r24, 0x21DE	; 0x8021de <twi_no_of_bytes>
     9d8:	90 91 df 21 	lds	r25, 0x21DF	; 0x8021df <twi_no_of_bytes+0x1>
     9dc:	28 17       	cp	r18, r24
     9de:	39 07       	cpc	r19, r25
     9e0:	39 f4       	brne	.+14     	; 0x9f0 <__vector_11+0x148>
		{
			TWIC_MASTER_CTRLC=(1<<TWI_MASTER_ACKACT_bp)|(1<<TWI_MASTER_CMD1_bp)|(1<<TWI_MASTER_CMD0_bp); //send NACK and stop condition if all bytes are transferred
     9e2:	87 e0       	ldi	r24, 0x07	; 7
     9e4:	80 93 83 04 	sts	0x0483, r24	; 0x800483 <__TEXT_REGION_LENGTH__+0x7fb483>
			
			twi_transfer_complete=1;
     9e8:	81 e0       	ldi	r24, 0x01	; 1
     9ea:	80 93 e3 21 	sts	0x21E3, r24	; 0x8021e3 <twi_transfer_complete>
     9ee:	03 c0       	rjmp	.+6      	; 0x9f6 <__vector_11+0x14e>
		}
		else
		{
			TWIC_MASTER_CTRLC=(1<<TWI_MASTER_CMD1_bp)|(0<<TWI_MASTER_CMD0_bp); //send acknowledge
     9f0:	82 e0       	ldi	r24, 0x02	; 2
     9f2:	80 93 83 04 	sts	0x0483, r24	; 0x800483 <__TEXT_REGION_LENGTH__+0x7fb483>
		}
	}
}
     9f6:	ff 91       	pop	r31
     9f8:	ef 91       	pop	r30
     9fa:	9f 91       	pop	r25
     9fc:	8f 91       	pop	r24
     9fe:	5f 91       	pop	r21
     a00:	4f 91       	pop	r20
     a02:	3f 91       	pop	r19
     a04:	2f 91       	pop	r18
     a06:	0f 90       	pop	r0
     a08:	0f be       	out	0x3f, r0	; 63
     a0a:	0f 90       	pop	r0
     a0c:	1f 90       	pop	r1
     a0e:	18 95       	reti

00000a10 <expander_read_port>:
	twi_write(addr, cmd, 3);
	last_val = expander_read_ports();
}

uint8_t expander_read_port(uint8_t portAddr)
{
     a10:	cf 93       	push	r28
     a12:	df 93       	push	r29
     a14:	00 d0       	rcall	.+0      	; 0xa16 <expander_read_port+0x6>
     a16:	cd b7       	in	r28, 0x3d	; 61
     a18:	de b7       	in	r29, 0x3e	; 62
	uint8_t port_val;
	uint8_t addr = EXP_ADDR;
	
	uint8_t cmd[] = {
     a1a:	8a 83       	std	Y+2, r24	; 0x02
		portAddr
	};
	
	twi_write(addr, cmd, sizeof cmd);
     a1c:	41 e0       	ldi	r20, 0x01	; 1
     a1e:	50 e0       	ldi	r21, 0x00	; 0
     a20:	be 01       	movw	r22, r28
     a22:	6e 5f       	subi	r22, 0xFE	; 254
     a24:	7f 4f       	sbci	r23, 0xFF	; 255
     a26:	80 e2       	ldi	r24, 0x20	; 32
     a28:	0e 94 3b 04 	call	0x876	; 0x876 <twi_write>
	
	twi_read(addr, &port_val, 1);
     a2c:	41 e0       	ldi	r20, 0x01	; 1
     a2e:	50 e0       	ldi	r21, 0x00	; 0
     a30:	be 01       	movw	r22, r28
     a32:	6f 5f       	subi	r22, 0xFF	; 255
     a34:	7f 4f       	sbci	r23, 0xFF	; 255
     a36:	80 e2       	ldi	r24, 0x20	; 32
     a38:	0e 94 21 04 	call	0x842	; 0x842 <twi_read>
	
	return port_val;
	
}
     a3c:	89 81       	ldd	r24, Y+1	; 0x01
     a3e:	0f 90       	pop	r0
     a40:	0f 90       	pop	r0
     a42:	df 91       	pop	r29
     a44:	cf 91       	pop	r28
     a46:	08 95       	ret

00000a48 <expander_read_ports>:

uint16_t expander_read_ports()
{
     a48:	cf 93       	push	r28
	uint16_t port_data;
	
	port_data = expander_read_port(0x00) + (expander_read_port(0x01) << 8);
     a4a:	80 e0       	ldi	r24, 0x00	; 0
     a4c:	0e 94 08 05 	call	0xa10	; 0xa10 <expander_read_port>
     a50:	c8 2f       	mov	r28, r24
     a52:	81 e0       	ldi	r24, 0x01	; 1
     a54:	0e 94 08 05 	call	0xa10	; 0xa10 <expander_read_port>
     a58:	90 e0       	ldi	r25, 0x00	; 0
     a5a:	98 2f       	mov	r25, r24
     a5c:	88 27       	eor	r24, r24
	return port_data;
	
}
     a5e:	8c 0f       	add	r24, r28
     a60:	91 1d       	adc	r25, r1
     a62:	cf 91       	pop	r28
     a64:	08 95       	ret

00000a66 <expander_init>:
#include "i2c.h"

volatile uint16_t last_val = 0;

void expander_init()
{
     a66:	cf 93       	push	r28
     a68:	df 93       	push	r29
     a6a:	00 d0       	rcall	.+0      	; 0xa6c <expander_init+0x6>
     a6c:	1f 92       	push	r1
     a6e:	cd b7       	in	r28, 0x3d	; 61
     a70:	de b7       	in	r29, 0x3e	; 62
	twi_init();
     a72:	0e 94 0d 04 	call	0x81a	; 0x81a <twi_init>
	
	//Set up port0 and port1 as input
	uint8_t addr = EXP_ADDR;
	uint8_t cmd[] = {
     a76:	86 e0       	ldi	r24, 0x06	; 6
     a78:	89 83       	std	Y+1, r24	; 0x01
     a7a:	8f ef       	ldi	r24, 0xFF	; 255
     a7c:	8a 83       	std	Y+2, r24	; 0x02
     a7e:	8b 83       	std	Y+3, r24	; 0x03
		EXP_REG_CTRL0,
		0xff,
		0xff
	};
	twi_write(addr, cmd, 3);
     a80:	43 e0       	ldi	r20, 0x03	; 3
     a82:	50 e0       	ldi	r21, 0x00	; 0
     a84:	be 01       	movw	r22, r28
     a86:	6f 5f       	subi	r22, 0xFF	; 255
     a88:	7f 4f       	sbci	r23, 0xFF	; 255
     a8a:	80 e2       	ldi	r24, 0x20	; 32
     a8c:	0e 94 3b 04 	call	0x876	; 0x876 <twi_write>
	last_val = expander_read_ports();
     a90:	0e 94 24 05 	call	0xa48	; 0xa48 <expander_read_ports>
     a94:	80 93 a7 21 	sts	0x21A7, r24	; 0x8021a7 <last_val>
     a98:	90 93 a8 21 	sts	0x21A8, r25	; 0x8021a8 <last_val+0x1>
}
     a9c:	23 96       	adiw	r28, 0x03	; 3
     a9e:	cd bf       	out	0x3d, r28	; 61
     aa0:	de bf       	out	0x3e, r29	; 62
     aa2:	df 91       	pop	r29
     aa4:	cf 91       	pop	r28
     aa6:	08 95       	ret

00000aa8 <expander_get_last_value>:
	
}

uint16_t expander_get_last_value()
{
	return last_val;
     aa8:	80 91 a7 21 	lds	r24, 0x21A7	; 0x8021a7 <last_val>
     aac:	90 91 a8 21 	lds	r25, 0x21A8	; 0x8021a8 <last_val+0x1>
}
     ab0:	08 95       	ret

00000ab2 <expander_get_val_changed>:

uint8_t expander_get_val_changed()
{
	uint16_t val = expander_read_ports();
     ab2:	0e 94 24 05 	call	0xa48	; 0xa48 <expander_read_ports>
	
	if (val == 0xFFFF)
     ab6:	8f 3f       	cpi	r24, 0xFF	; 255
     ab8:	2f ef       	ldi	r18, 0xFF	; 255
     aba:	92 07       	cpc	r25, r18
     abc:	d1 f0       	breq	.+52     	; 0xaf2 <expander_get_val_changed+0x40>
	{
		return 0;
	}
	
	if (val == last_val)
     abe:	20 91 a7 21 	lds	r18, 0x21A7	; 0x8021a7 <last_val>
     ac2:	30 91 a8 21 	lds	r19, 0x21A8	; 0x8021a8 <last_val+0x1>
     ac6:	82 17       	cp	r24, r18
     ac8:	93 07       	cpc	r25, r19
     aca:	a9 f0       	breq	.+42     	; 0xaf6 <expander_get_val_changed+0x44>
	{
		return 0;
	}
	
	if (val > last_val)
     acc:	20 91 a7 21 	lds	r18, 0x21A7	; 0x8021a7 <last_val>
     ad0:	30 91 a8 21 	lds	r19, 0x21A8	; 0x8021a8 <last_val+0x1>
     ad4:	28 17       	cp	r18, r24
     ad6:	39 07       	cpc	r19, r25
     ad8:	30 f4       	brcc	.+12     	; 0xae6 <expander_get_val_changed+0x34>
	{
		last_val = val;
     ada:	80 93 a7 21 	sts	0x21A7, r24	; 0x8021a7 <last_val>
     ade:	90 93 a8 21 	sts	0x21A8, r25	; 0x8021a8 <last_val+0x1>
		return 2;		
     ae2:	82 e0       	ldi	r24, 0x02	; 2
     ae4:	08 95       	ret
	}
	
	last_val = val;
     ae6:	80 93 a7 21 	sts	0x21A7, r24	; 0x8021a7 <last_val>
     aea:	90 93 a8 21 	sts	0x21A8, r25	; 0x8021a8 <last_val+0x1>
	return 1;	
     aee:	81 e0       	ldi	r24, 0x01	; 1
     af0:	08 95       	ret
{
	uint16_t val = expander_read_ports();
	
	if (val == 0xFFFF)
	{
		return 0;
     af2:	80 e0       	ldi	r24, 0x00	; 0
     af4:	08 95       	ret
	}
	
	if (val == last_val)
	{
		return 0;
     af6:	80 e0       	ldi	r24, 0x00	; 0
		return 2;		
	}
	
	last_val = val;
	return 1;	
     af8:	08 95       	ret

00000afa <play_lights_overlay_note_button_leds>:



void play_lights_overlay_note_button_leds(uint8_t buttons)
{
	if (buttons & 0x01)
     afa:	80 ff       	sbrs	r24, 0
     afc:	12 c0       	rjmp	.+36     	; 0xb22 <play_lights_overlay_note_button_leds+0x28>
	{
		leds[GRUMBO_LED_COUNT] = game_colors[BUTTON_0];
     afe:	e8 e7       	ldi	r30, 0x78	; 120
     b00:	f2 e2       	ldi	r31, 0x22	; 34
     b02:	10 82       	st	Z, r1
     b04:	90 e4       	ldi	r25, 0x40	; 64
     b06:	91 83       	std	Z+1, r25	; 0x01
     b08:	12 82       	std	Z+2, r1	; 0x02
     b0a:	10 82       	st	Z, r1
     b0c:	91 83       	std	Z+1, r25	; 0x01
     b0e:	12 82       	std	Z+2, r1	; 0x02
		leds[GRUMBO_LED_COUNT + 1] = game_colors[BUTTON_0];
     b10:	eb e7       	ldi	r30, 0x7B	; 123
     b12:	f2 e2       	ldi	r31, 0x22	; 34
     b14:	10 82       	st	Z, r1
     b16:	91 83       	std	Z+1, r25	; 0x01
     b18:	12 82       	std	Z+2, r1	; 0x02
     b1a:	10 82       	st	Z, r1
     b1c:	91 83       	std	Z+1, r25	; 0x01
     b1e:	12 82       	std	Z+2, r1	; 0x02
     b20:	10 c0       	rjmp	.+32     	; 0xb42 <play_lights_overlay_note_button_leds+0x48>
	}
	else
	{
		leds[GRUMBO_LED_COUNT] = game_colors[LED_OFF];
     b22:	e8 e7       	ldi	r30, 0x78	; 120
     b24:	f2 e2       	ldi	r31, 0x22	; 34
     b26:	10 82       	st	Z, r1
     b28:	11 82       	std	Z+1, r1	; 0x01
     b2a:	12 82       	std	Z+2, r1	; 0x02
     b2c:	10 82       	st	Z, r1
     b2e:	11 82       	std	Z+1, r1	; 0x01
     b30:	12 82       	std	Z+2, r1	; 0x02
		leds[GRUMBO_LED_COUNT + 1] = game_colors[LED_OFF];
     b32:	eb e7       	ldi	r30, 0x7B	; 123
     b34:	f2 e2       	ldi	r31, 0x22	; 34
     b36:	10 82       	st	Z, r1
     b38:	11 82       	std	Z+1, r1	; 0x01
     b3a:	12 82       	std	Z+2, r1	; 0x02
     b3c:	10 82       	st	Z, r1
     b3e:	11 82       	std	Z+1, r1	; 0x01
     b40:	12 82       	std	Z+2, r1	; 0x02
	}
	
	if (buttons & 0x02)
     b42:	81 ff       	sbrs	r24, 1
     b44:	12 c0       	rjmp	.+36     	; 0xb6a <play_lights_overlay_note_button_leds+0x70>
	{
		leds[GRUMBO_LED_COUNT + 2] = game_colors[BUTTON_1];
     b46:	ee e7       	ldi	r30, 0x7E	; 126
     b48:	f2 e2       	ldi	r31, 0x22	; 34
     b4a:	90 e4       	ldi	r25, 0x40	; 64
     b4c:	90 83       	st	Z, r25
     b4e:	11 82       	std	Z+1, r1	; 0x01
     b50:	12 82       	std	Z+2, r1	; 0x02
     b52:	90 83       	st	Z, r25
     b54:	11 82       	std	Z+1, r1	; 0x01
     b56:	12 82       	std	Z+2, r1	; 0x02
		leds[GRUMBO_LED_COUNT + 3] = game_colors[BUTTON_1];
     b58:	e1 e8       	ldi	r30, 0x81	; 129
     b5a:	f2 e2       	ldi	r31, 0x22	; 34
     b5c:	90 83       	st	Z, r25
     b5e:	11 82       	std	Z+1, r1	; 0x01
     b60:	12 82       	std	Z+2, r1	; 0x02
     b62:	90 83       	st	Z, r25
     b64:	11 82       	std	Z+1, r1	; 0x01
     b66:	12 82       	std	Z+2, r1	; 0x02
     b68:	10 c0       	rjmp	.+32     	; 0xb8a <play_lights_overlay_note_button_leds+0x90>
	}
	else
	{
		leds[GRUMBO_LED_COUNT + 2] = game_colors[LED_OFF];
     b6a:	ee e7       	ldi	r30, 0x7E	; 126
     b6c:	f2 e2       	ldi	r31, 0x22	; 34
     b6e:	10 82       	st	Z, r1
     b70:	11 82       	std	Z+1, r1	; 0x01
     b72:	12 82       	std	Z+2, r1	; 0x02
     b74:	10 82       	st	Z, r1
     b76:	11 82       	std	Z+1, r1	; 0x01
     b78:	12 82       	std	Z+2, r1	; 0x02
		leds[GRUMBO_LED_COUNT + 3] = game_colors[LED_OFF];
     b7a:	e1 e8       	ldi	r30, 0x81	; 129
     b7c:	f2 e2       	ldi	r31, 0x22	; 34
     b7e:	10 82       	st	Z, r1
     b80:	11 82       	std	Z+1, r1	; 0x01
     b82:	12 82       	std	Z+2, r1	; 0x02
     b84:	10 82       	st	Z, r1
     b86:	11 82       	std	Z+1, r1	; 0x01
     b88:	12 82       	std	Z+2, r1	; 0x02
	}
	
	if (buttons & 0x04)
     b8a:	82 ff       	sbrs	r24, 2
     b8c:	12 c0       	rjmp	.+36     	; 0xbb2 <play_lights_overlay_note_button_leds+0xb8>
	{
		leds[GRUMBO_LED_COUNT + 4] = game_colors[BUTTON_2];
     b8e:	e4 e8       	ldi	r30, 0x84	; 132
     b90:	f2 e2       	ldi	r31, 0x22	; 34
     b92:	10 82       	st	Z, r1
     b94:	11 82       	std	Z+1, r1	; 0x01
     b96:	90 e4       	ldi	r25, 0x40	; 64
     b98:	92 83       	std	Z+2, r25	; 0x02
     b9a:	10 82       	st	Z, r1
     b9c:	11 82       	std	Z+1, r1	; 0x01
     b9e:	92 83       	std	Z+2, r25	; 0x02
		leds[GRUMBO_LED_COUNT + 5] = game_colors[BUTTON_2];
     ba0:	e7 e8       	ldi	r30, 0x87	; 135
     ba2:	f2 e2       	ldi	r31, 0x22	; 34
     ba4:	10 82       	st	Z, r1
     ba6:	11 82       	std	Z+1, r1	; 0x01
     ba8:	92 83       	std	Z+2, r25	; 0x02
     baa:	10 82       	st	Z, r1
     bac:	11 82       	std	Z+1, r1	; 0x01
     bae:	92 83       	std	Z+2, r25	; 0x02
     bb0:	10 c0       	rjmp	.+32     	; 0xbd2 <play_lights_overlay_note_button_leds+0xd8>
	}
	else
	{
		leds[GRUMBO_LED_COUNT + 4] = game_colors[LED_OFF];
     bb2:	e4 e8       	ldi	r30, 0x84	; 132
     bb4:	f2 e2       	ldi	r31, 0x22	; 34
     bb6:	10 82       	st	Z, r1
     bb8:	11 82       	std	Z+1, r1	; 0x01
     bba:	12 82       	std	Z+2, r1	; 0x02
     bbc:	10 82       	st	Z, r1
     bbe:	11 82       	std	Z+1, r1	; 0x01
     bc0:	12 82       	std	Z+2, r1	; 0x02
		leds[GRUMBO_LED_COUNT + 5] = game_colors[LED_OFF];
     bc2:	e7 e8       	ldi	r30, 0x87	; 135
     bc4:	f2 e2       	ldi	r31, 0x22	; 34
     bc6:	10 82       	st	Z, r1
     bc8:	11 82       	std	Z+1, r1	; 0x01
     bca:	12 82       	std	Z+2, r1	; 0x02
     bcc:	10 82       	st	Z, r1
     bce:	11 82       	std	Z+1, r1	; 0x01
     bd0:	12 82       	std	Z+2, r1	; 0x02
	}
	
	if (buttons & 0x08)
     bd2:	83 ff       	sbrs	r24, 3
     bd4:	12 c0       	rjmp	.+36     	; 0xbfa <play_lights_overlay_note_button_leds+0x100>
	{
		leds[GRUMBO_LED_COUNT + 6] = game_colors[BUTTON_3];
     bd6:	ea e8       	ldi	r30, 0x8A	; 138
     bd8:	f2 e2       	ldi	r31, 0x22	; 34
     bda:	80 e2       	ldi	r24, 0x20	; 32
     bdc:	80 83       	st	Z, r24
     bde:	81 83       	std	Z+1, r24	; 0x01
     be0:	12 82       	std	Z+2, r1	; 0x02
     be2:	80 83       	st	Z, r24
     be4:	81 83       	std	Z+1, r24	; 0x01
     be6:	12 82       	std	Z+2, r1	; 0x02
		leds[GRUMBO_LED_COUNT + 7] = game_colors[BUTTON_3];
     be8:	ed e8       	ldi	r30, 0x8D	; 141
     bea:	f2 e2       	ldi	r31, 0x22	; 34
     bec:	80 83       	st	Z, r24
     bee:	81 83       	std	Z+1, r24	; 0x01
     bf0:	12 82       	std	Z+2, r1	; 0x02
     bf2:	80 83       	st	Z, r24
     bf4:	81 83       	std	Z+1, r24	; 0x01
     bf6:	12 82       	std	Z+2, r1	; 0x02
     bf8:	08 95       	ret
	}
	else
	{
		leds[GRUMBO_LED_COUNT + 6] = game_colors[LED_OFF];
     bfa:	ea e8       	ldi	r30, 0x8A	; 138
     bfc:	f2 e2       	ldi	r31, 0x22	; 34
     bfe:	10 82       	st	Z, r1
     c00:	11 82       	std	Z+1, r1	; 0x01
     c02:	12 82       	std	Z+2, r1	; 0x02
     c04:	10 82       	st	Z, r1
     c06:	11 82       	std	Z+1, r1	; 0x01
     c08:	12 82       	std	Z+2, r1	; 0x02
		leds[GRUMBO_LED_COUNT + 7] = game_colors[LED_OFF];
     c0a:	ed e8       	ldi	r30, 0x8D	; 141
     c0c:	f2 e2       	ldi	r31, 0x22	; 34
     c0e:	10 82       	st	Z, r1
     c10:	11 82       	std	Z+1, r1	; 0x01
     c12:	12 82       	std	Z+2, r1	; 0x02
     c14:	10 82       	st	Z, r1
     c16:	11 82       	std	Z+1, r1	; 0x01
     c18:	12 82       	std	Z+2, r1	; 0x02
     c1a:	08 95       	ret

00000c1c <overlay_dingle_pos>:
	}
}
	
void overlay_dingle_pos(uint16_t dingle_pos)
{
     c1c:	cf 93       	push	r28
     c1e:	df 93       	push	r29
     c20:	bc 01       	movw	r22, r24
	uint8_t led_i;
	
	for (uint8_t i = 0; i < 16; i++)
     c22:	d0 e0       	ldi	r29, 0x00	; 0
     c24:	42 c0       	rjmp	.+132    	; 0xcaa <overlay_dingle_pos+0x8e>
	{
		if (!(dingle_pos & (0x01 << i)))
     c26:	8d 2f       	mov	r24, r29
     c28:	90 e0       	ldi	r25, 0x00	; 0
     c2a:	21 e0       	ldi	r18, 0x01	; 1
     c2c:	30 e0       	ldi	r19, 0x00	; 0
     c2e:	0d 2e       	mov	r0, r29
     c30:	02 c0       	rjmp	.+4      	; 0xc36 <overlay_dingle_pos+0x1a>
     c32:	22 0f       	add	r18, r18
     c34:	33 1f       	adc	r19, r19
     c36:	0a 94       	dec	r0
     c38:	e2 f7       	brpl	.-8      	; 0xc32 <overlay_dingle_pos+0x16>
     c3a:	26 23       	and	r18, r22
     c3c:	37 23       	and	r19, r23
     c3e:	23 2b       	or	r18, r19
     c40:	99 f5       	brne	.+102    	; 0xca8 <overlay_dingle_pos+0x8c>
			//if i is 0, since we are using unsigned ints, we have to manually calc the starting index
			//in the LED array
			//This only works out because HALF_POS_LED_COUNT = 3, our multiple for i 
			//(or the number of grumbo leds / the number of hall effect sensors)
			//This algorithm only works as expected for one-at-a-time activated sensors
			if (i == 0)
     c42:	dd 23       	and	r29, r29
     c44:	29 f0       	breq	.+10     	; 0xc50 <overlay_dingle_pos+0x34>
			{
				led_i = GRUMBO_LED_COUNT - HALF_POS_LED_COUNT;
			}
			else
			{
				led_i = (i * 3) - HALF_POS_LED_COUNT;
     c46:	01 97       	sbiw	r24, 0x01	; 1
     c48:	98 2f       	mov	r25, r24
     c4a:	99 0f       	add	r25, r25
     c4c:	89 0f       	add	r24, r25
     c4e:	01 c0       	rjmp	.+2      	; 0xc52 <overlay_dingle_pos+0x36>
			//This only works out because HALF_POS_LED_COUNT = 3, our multiple for i 
			//(or the number of grumbo leds / the number of hall effect sensors)
			//This algorithm only works as expected for one-at-a-time activated sensors
			if (i == 0)
			{
				led_i = GRUMBO_LED_COUNT - HALF_POS_LED_COUNT;
     c50:	8d e2       	ldi	r24, 0x2D	; 45
     c52:	c0 e0       	ldi	r28, 0x00	; 0
     c54:	27 c0       	rjmp	.+78     	; 0xca4 <overlay_dingle_pos+0x88>
				led_i = (i * 3) - HALF_POS_LED_COUNT;
			}
			
			for (uint8_t j = 0; j < POS_LED_COUNT; j++)
			{				
				leds[led_i % GRUMBO_LED_COUNT] = pos_leds[j];
     c56:	9b ea       	ldi	r25, 0xAB	; 171
     c58:	89 9f       	mul	r24, r25
     c5a:	91 2d       	mov	r25, r1
     c5c:	11 24       	eor	r1, r1
     c5e:	92 95       	swap	r25
     c60:	96 95       	lsr	r25
     c62:	97 70       	andi	r25, 0x07	; 7
     c64:	28 2f       	mov	r18, r24
     c66:	30 e3       	ldi	r19, 0x30	; 48
     c68:	93 9f       	mul	r25, r19
     c6a:	20 19       	sub	r18, r0
     c6c:	11 24       	eor	r1, r1
     c6e:	30 e0       	ldi	r19, 0x00	; 0
     c70:	4c 2f       	mov	r20, r28
     c72:	50 e0       	ldi	r21, 0x00	; 0
     c74:	f9 01       	movw	r30, r18
     c76:	ee 0f       	add	r30, r30
     c78:	ff 1f       	adc	r31, r31
     c7a:	2e 0f       	add	r18, r30
     c7c:	3f 1f       	adc	r19, r31
     c7e:	f9 01       	movw	r30, r18
     c80:	e8 51       	subi	r30, 0x18	; 24
     c82:	fe 4d       	sbci	r31, 0xDE	; 222
     c84:	da 01       	movw	r26, r20
     c86:	aa 0f       	add	r26, r26
     c88:	bb 1f       	adc	r27, r27
     c8a:	4a 0f       	add	r20, r26
     c8c:	5b 1f       	adc	r21, r27
     c8e:	da 01       	movw	r26, r20
     c90:	a2 5a       	subi	r26, 0xA2	; 162
     c92:	bf 4d       	sbci	r27, 0xDF	; 223
     c94:	2d 91       	ld	r18, X+
     c96:	3d 91       	ld	r19, X+
     c98:	4c 91       	ld	r20, X
     c9a:	20 83       	st	Z, r18
     c9c:	31 83       	std	Z+1, r19	; 0x01
     c9e:	42 83       	std	Z+2, r20	; 0x02
				led_i++;
     ca0:	8f 5f       	subi	r24, 0xFF	; 255
			else
			{
				led_i = (i * 3) - HALF_POS_LED_COUNT;
			}
			
			for (uint8_t j = 0; j < POS_LED_COUNT; j++)
     ca2:	cf 5f       	subi	r28, 0xFF	; 255
     ca4:	c7 30       	cpi	r28, 0x07	; 7
     ca6:	b8 f2       	brcs	.-82     	; 0xc56 <overlay_dingle_pos+0x3a>
	
void overlay_dingle_pos(uint16_t dingle_pos)
{
	uint8_t led_i;
	
	for (uint8_t i = 0; i < 16; i++)
     ca8:	df 5f       	subi	r29, 0xFF	; 255
     caa:	d0 31       	cpi	r29, 0x10	; 16
     cac:	08 f4       	brcc	.+2      	; 0xcb0 <overlay_dingle_pos+0x94>
     cae:	bb cf       	rjmp	.-138    	; 0xc26 <overlay_dingle_pos+0xa>
				led_i++;
			}
		}
		
	}
}
     cb0:	df 91       	pop	r29
     cb2:	cf 91       	pop	r28
     cb4:	08 95       	ret

00000cb6 <play_lights_standby>:
uint8_t red = 2;
uint8_t green = 2;
uint8_t blue = 2;

void play_lights_standby()
{
     cb6:	cf 92       	push	r12
     cb8:	df 92       	push	r13
     cba:	ef 92       	push	r14
	ws2812drv_led_t color = {.r = red, .g = green, .b = blue};
     cbc:	20 91 23 20 	lds	r18, 0x2023	; 0x802023 <green>
     cc0:	c2 2e       	mov	r12, r18
     cc2:	90 91 24 20 	lds	r25, 0x2024	; 0x802024 <red>
     cc6:	d9 2e       	mov	r13, r25
     cc8:	80 91 22 20 	lds	r24, 0x2022	; 0x802022 <blue>
     ccc:	e8 2e       	mov	r14, r24
	blue++;
     cce:	8f 5f       	subi	r24, 0xFF	; 255
     cd0:	80 93 22 20 	sts	0x2022, r24	; 0x802022 <blue>
	if (blue >= MAX_BRIGHTNESS / 8)
     cd4:	88 30       	cpi	r24, 0x08	; 8
     cd6:	88 f0       	brcs	.+34     	; 0xcfa <play_lights_standby+0x44>
	{
		blue = 2;
     cd8:	82 e0       	ldi	r24, 0x02	; 2
     cda:	80 93 22 20 	sts	0x2022, r24	; 0x802022 <blue>
		red++;
     cde:	9f 5f       	subi	r25, 0xFF	; 255
     ce0:	90 93 24 20 	sts	0x2024, r25	; 0x802024 <red>
		if (red >= MAX_BRIGHTNESS / 8)
     ce4:	98 30       	cpi	r25, 0x08	; 8
     ce6:	48 f0       	brcs	.+18     	; 0xcfa <play_lights_standby+0x44>
		{
			red = 2;
     ce8:	80 93 24 20 	sts	0x2024, r24	; 0x802024 <red>
			green++;
     cec:	2f 5f       	subi	r18, 0xFF	; 255
     cee:	20 93 23 20 	sts	0x2023, r18	; 0x802023 <green>
			if (green >= MAX_BRIGHTNESS / 8)
     cf2:	28 30       	cpi	r18, 0x08	; 8
     cf4:	10 f0       	brcs	.+4      	; 0xcfa <play_lights_standby+0x44>
			{
				green = 2;
     cf6:	80 93 23 20 	sts	0x2023, r24	; 0x802023 <green>
uint8_t red = 2;
uint8_t green = 2;
uint8_t blue = 2;

void play_lights_standby()
{
     cfa:	20 e0       	ldi	r18, 0x00	; 0
     cfc:	0e c0       	rjmp	.+28     	; 0xd1a <play_lights_standby+0x64>
	
	
	
	for (uint8_t i = 0; i < LED_COUNT; i++)
	{
		leds[i] = color;
     cfe:	82 2f       	mov	r24, r18
     d00:	90 e0       	ldi	r25, 0x00	; 0
     d02:	fc 01       	movw	r30, r24
     d04:	ee 0f       	add	r30, r30
     d06:	ff 1f       	adc	r31, r31
     d08:	8e 0f       	add	r24, r30
     d0a:	9f 1f       	adc	r25, r31
     d0c:	fc 01       	movw	r30, r24
     d0e:	e8 51       	subi	r30, 0x18	; 24
     d10:	fe 4d       	sbci	r31, 0xDE	; 222
     d12:	c0 82       	st	Z, r12
     d14:	d1 82       	std	Z+1, r13	; 0x01
     d16:	e2 82       	std	Z+2, r14	; 0x02
		}
	}
	
	
	
	for (uint8_t i = 0; i < LED_COUNT; i++)
     d18:	2f 5f       	subi	r18, 0xFF	; 255
     d1a:	28 33       	cpi	r18, 0x38	; 56
     d1c:	80 f3       	brcs	.-32     	; 0xcfe <play_lights_standby+0x48>
	{
		leds[i] = color;
	}

	ws2812drv_start_transfer(leds, LED_COUNT);
     d1e:	68 e3       	ldi	r22, 0x38	; 56
     d20:	70 e0       	ldi	r23, 0x00	; 0
     d22:	88 ee       	ldi	r24, 0xE8	; 232
     d24:	91 e2       	ldi	r25, 0x21	; 33
     d26:	0e 94 5a 12 	call	0x24b4	; 0x24b4 <ws2812drv_start_transfer>
}
     d2a:	ef 90       	pop	r14
     d2c:	df 90       	pop	r13
     d2e:	cf 90       	pop	r12
     d30:	08 95       	ret

00000d32 <play_lights_free_play>:

void play_lights_free_play(uint16_t dingle_pos, uint8_t buttons)
{
     d32:	ff 92       	push	r15
     d34:	0f 93       	push	r16
     d36:	1f 93       	push	r17
     d38:	cf 93       	push	r28
     d3a:	df 93       	push	r29
     d3c:	ec 01       	movw	r28, r24
     d3e:	f6 2e       	mov	r15, r22
	for (uint8_t i = 0; i < GRUMBO_LED_COUNT; i++)
     d40:	10 e0       	ldi	r17, 0x00	; 0
     d42:	36 c0       	rjmp	.+108    	; 0xdb0 <play_lights_free_play+0x7e>
	{
		leds[(i + offset) % GRUMBO_LED_COUNT] = rainbow_leds[i % RAINBOW_LED_COUNT];
     d44:	00 91 a9 21 	lds	r16, 0x21A9	; 0x8021a9 <offset>
     d48:	80 2f       	mov	r24, r16
     d4a:	90 e0       	ldi	r25, 0x00	; 0
     d4c:	81 0f       	add	r24, r17
     d4e:	91 1d       	adc	r25, r1
     d50:	60 e3       	ldi	r22, 0x30	; 48
     d52:	70 e0       	ldi	r23, 0x00	; 0
     d54:	0e 94 68 12 	call	0x24d0	; 0x24d0 <__divmodhi4>
     d58:	ac 01       	movw	r20, r24
     d5a:	9b ea       	ldi	r25, 0xAB	; 171
     d5c:	19 9f       	mul	r17, r25
     d5e:	91 2d       	mov	r25, r1
     d60:	11 24       	eor	r1, r1
     d62:	96 95       	lsr	r25
     d64:	96 95       	lsr	r25
     d66:	96 95       	lsr	r25
     d68:	89 2f       	mov	r24, r25
     d6a:	88 0f       	add	r24, r24
     d6c:	98 0f       	add	r25, r24
     d6e:	89 2f       	mov	r24, r25
     d70:	88 0f       	add	r24, r24
     d72:	88 0f       	add	r24, r24
     d74:	21 2f       	mov	r18, r17
     d76:	28 1b       	sub	r18, r24
     d78:	30 e0       	ldi	r19, 0x00	; 0
     d7a:	da 01       	movw	r26, r20
     d7c:	aa 0f       	add	r26, r26
     d7e:	bb 1f       	adc	r27, r27
     d80:	4a 0f       	add	r20, r26
     d82:	5b 1f       	adc	r21, r27
     d84:	da 01       	movw	r26, r20
     d86:	a8 51       	subi	r26, 0x18	; 24
     d88:	be 4d       	sbci	r27, 0xDE	; 222
     d8a:	f9 01       	movw	r30, r18
     d8c:	ee 0f       	add	r30, r30
     d8e:	ff 1f       	adc	r31, r31
     d90:	2e 0f       	add	r18, r30
     d92:	3f 1f       	adc	r19, r31
     d94:	f9 01       	movw	r30, r18
     d96:	e6 5c       	subi	r30, 0xC6	; 198
     d98:	ff 4d       	sbci	r31, 0xDF	; 223
     d9a:	20 81       	ld	r18, Z
     d9c:	31 81       	ldd	r19, Z+1	; 0x01
     d9e:	42 81       	ldd	r20, Z+2	; 0x02
     da0:	2d 93       	st	X+, r18
     da2:	3d 93       	st	X+, r19
     da4:	4c 93       	st	X, r20
		
		if (offset == GRUMBO_LED_COUNT)
     da6:	00 33       	cpi	r16, 0x30	; 48
     da8:	11 f4       	brne	.+4      	; 0xdae <play_lights_free_play+0x7c>
		{
			offset = 0;
     daa:	10 92 a9 21 	sts	0x21A9, r1	; 0x8021a9 <offset>
	ws2812drv_start_transfer(leds, LED_COUNT);
}

void play_lights_free_play(uint16_t dingle_pos, uint8_t buttons)
{
	for (uint8_t i = 0; i < GRUMBO_LED_COUNT; i++)
     dae:	1f 5f       	subi	r17, 0xFF	; 255
     db0:	10 33       	cpi	r17, 0x30	; 48
     db2:	40 f2       	brcs	.-112    	; 0xd44 <play_lights_free_play+0x12>
		if (offset == GRUMBO_LED_COUNT)
		{
			offset = 0;
		}
	}
	offset++;
     db4:	80 91 a9 21 	lds	r24, 0x21A9	; 0x8021a9 <offset>
     db8:	8f 5f       	subi	r24, 0xFF	; 255
     dba:	80 93 a9 21 	sts	0x21A9, r24	; 0x8021a9 <offset>
		
	play_lights_overlay_note_button_leds(buttons);
     dbe:	8f 2d       	mov	r24, r15
     dc0:	0e 94 7d 05 	call	0xafa	; 0xafa <play_lights_overlay_note_button_leds>
	overlay_dingle_pos(dingle_pos);
     dc4:	ce 01       	movw	r24, r28
     dc6:	0e 94 0e 06 	call	0xc1c	; 0xc1c <overlay_dingle_pos>
	ws2812drv_start_transfer(leds, LED_COUNT);
     dca:	68 e3       	ldi	r22, 0x38	; 56
     dcc:	70 e0       	ldi	r23, 0x00	; 0
     dce:	88 ee       	ldi	r24, 0xE8	; 232
     dd0:	91 e2       	ldi	r25, 0x21	; 33
     dd2:	0e 94 5a 12 	call	0x24b4	; 0x24b4 <ws2812drv_start_transfer>
}
     dd6:	df 91       	pop	r29
     dd8:	cf 91       	pop	r28
     dda:	1f 91       	pop	r17
     ddc:	0f 91       	pop	r16
     dde:	ff 90       	pop	r15
     de0:	08 95       	ret

00000de2 <play_lights_nyan>:



void play_lights_nyan()
{
     de2:	6f 92       	push	r6
     de4:	7f 92       	push	r7
     de6:	8f 92       	push	r8
     de8:	cf 92       	push	r12
     dea:	df 92       	push	r13
     dec:	ef 92       	push	r14
     dee:	cf 93       	push	r28
	uint8_t i = 0;
	uint8_t j = 0;
	uint8_t half = GRUMBO_LED_COUNT / 2;
	uint8_t margin = ((half - RAINBOW_LED_COUNT) / 2);
	
	if (offset == 0)
     df0:	80 91 a9 21 	lds	r24, 0x21A9	; 0x8021a9 <offset>
     df4:	81 11       	cpse	r24, r1
     df6:	04 c0       	rjmp	.+8      	; 0xe00 <play_lights_nyan+0x1e>
	{
		srand(get_seed);
     df8:	87 e8       	ldi	r24, 0x87	; 135
     dfa:	9e e0       	ldi	r25, 0x0E	; 14
     dfc:	0e 94 02 14 	call	0x2804	; 0x2804 <srand>
	}
	
	if (!(offset % 2))
     e00:	80 91 a9 21 	lds	r24, 0x21A9	; 0x8021a9 <offset>
     e04:	80 fd       	sbrc	r24, 0
     e06:	0b c0       	rjmp	.+22     	; 0xe1e <play_lights_nyan+0x3c>
	{
		
		if (bump > 0)
     e08:	80 91 25 20 	lds	r24, 0x2025	; 0x802025 <bump>
     e0c:	18 16       	cp	r1, r24
     e0e:	24 f4       	brge	.+8      	; 0xe18 <play_lights_nyan+0x36>
		{
			bump = -1;
     e10:	8f ef       	ldi	r24, 0xFF	; 255
     e12:	80 93 25 20 	sts	0x2025, r24	; 0x802025 <bump>
     e16:	03 c0       	rjmp	.+6      	; 0xe1e <play_lights_nyan+0x3c>
		}
		else
		{
			bump = 1;
     e18:	81 e0       	ldi	r24, 0x01	; 1
     e1a:	80 93 25 20 	sts	0x2025, r24	; 0x802025 <bump>
				.r = MAX_BRIGHTNESS / 4,
				.g = 0,
				.b = MAX_BRIGHTNESS / 4,
			};
			
			leds[i+half  - bump] = rainbow_leds[j++ % RAINBOW_LED_COUNT];
     e1e:	40 e0       	ldi	r20, 0x00	; 0
     e20:	90 e0       	ldi	r25, 0x00	; 0
     e22:	7b c0       	rjmp	.+246    	; 0xf1a <play_lights_nyan+0x138>
		}
	}
	
	for (i = 0; i < half; i++)
	{
		if (i < margin || i >= half - margin)
     e24:	96 30       	cpi	r25, 0x06	; 6
     e26:	28 f0       	brcs	.+10     	; 0xe32 <play_lights_nyan+0x50>
     e28:	a9 2f       	mov	r26, r25
     e2a:	b0 e0       	ldi	r27, 0x00	; 0
     e2c:	a2 31       	cpi	r26, 0x12	; 18
     e2e:	b1 05       	cpc	r27, r1
     e30:	7c f1       	brlt	.+94     	; 0xe90 <play_lights_nyan+0xae>
		{
			
			leds[i + bump] = (ws2812drv_led_t)game_colors[LED_OFF];
     e32:	e9 2f       	mov	r30, r25
     e34:	f0 e0       	ldi	r31, 0x00	; 0
     e36:	20 91 25 20 	lds	r18, 0x2025	; 0x802025 <bump>
     e3a:	02 2e       	mov	r0, r18
     e3c:	00 0c       	add	r0, r0
     e3e:	33 0b       	sbc	r19, r19
     e40:	df 01       	movw	r26, r30
     e42:	a2 0f       	add	r26, r18
     e44:	b3 1f       	adc	r27, r19
     e46:	bd 01       	movw	r22, r26
     e48:	66 0f       	add	r22, r22
     e4a:	77 1f       	adc	r23, r23
     e4c:	a6 0f       	add	r26, r22
     e4e:	b7 1f       	adc	r27, r23
     e50:	a8 51       	subi	r26, 0x18	; 24
     e52:	be 4d       	sbci	r27, 0xDE	; 222
     e54:	1c 92       	st	X, r1
     e56:	11 96       	adiw	r26, 0x01	; 1
     e58:	1c 92       	st	X, r1
     e5a:	11 97       	sbiw	r26, 0x01	; 1
     e5c:	12 96       	adiw	r26, 0x02	; 2
     e5e:	1c 92       	st	X, r1
     e60:	12 97       	sbiw	r26, 0x02	; 2
     e62:	1c 92       	st	X, r1
     e64:	11 96       	adiw	r26, 0x01	; 1
     e66:	1c 92       	st	X, r1
     e68:	11 97       	sbiw	r26, 0x01	; 1
     e6a:	12 96       	adiw	r26, 0x02	; 2
     e6c:	1c 92       	st	X, r1
			leds[i + half - bump] = (ws2812drv_led_t)game_colors[LED_OFF];
     e6e:	78 96       	adiw	r30, 0x18	; 24
     e70:	e2 1b       	sub	r30, r18
     e72:	f3 0b       	sbc	r31, r19
     e74:	9f 01       	movw	r18, r30
     e76:	22 0f       	add	r18, r18
     e78:	33 1f       	adc	r19, r19
     e7a:	e2 0f       	add	r30, r18
     e7c:	f3 1f       	adc	r31, r19
     e7e:	e8 51       	subi	r30, 0x18	; 24
     e80:	fe 4d       	sbci	r31, 0xDE	; 222
     e82:	10 82       	st	Z, r1
     e84:	11 82       	std	Z+1, r1	; 0x01
     e86:	12 82       	std	Z+2, r1	; 0x02
     e88:	10 82       	st	Z, r1
     e8a:	11 82       	std	Z+1, r1	; 0x01
     e8c:	12 82       	std	Z+2, r1	; 0x02
     e8e:	44 c0       	rjmp	.+136    	; 0xf18 <play_lights_nyan+0x136>
		}
		else
		{
			
			leds[i + bump] = 	
     e90:	60 91 25 20 	lds	r22, 0x2025	; 0x802025 <bump>
     e94:	06 2e       	mov	r0, r22
     e96:	00 0c       	add	r0, r0
     e98:	77 0b       	sbc	r23, r23
     e9a:	9d 01       	movw	r18, r26
     e9c:	26 0f       	add	r18, r22
     e9e:	37 1f       	adc	r19, r23
     ea0:	61 2c       	mov	r6, r1
     ea2:	68 94       	set
     ea4:	77 24       	eor	r7, r7
     ea6:	74 f8       	bld	r7, 4
     ea8:	68 94       	set
     eaa:	88 24       	eor	r8, r8
     eac:	84 f8       	bld	r8, 4
     eae:	f9 01       	movw	r30, r18
     eb0:	ee 0f       	add	r30, r30
     eb2:	ff 1f       	adc	r31, r31
     eb4:	2e 0f       	add	r18, r30
     eb6:	3f 1f       	adc	r19, r31
     eb8:	f9 01       	movw	r30, r18
     eba:	e8 51       	subi	r30, 0x18	; 24
     ebc:	fe 4d       	sbci	r31, 0xDE	; 222
     ebe:	60 82       	st	Z, r6
     ec0:	71 82       	std	Z+1, r7	; 0x01
     ec2:	82 82       	std	Z+2, r8	; 0x02
				.r = MAX_BRIGHTNESS / 4,
				.g = 0,
				.b = MAX_BRIGHTNESS / 4,
			};
			
			leds[i+half  - bump] = rainbow_leds[j++ % RAINBOW_LED_COUNT];
     ec4:	58 96       	adiw	r26, 0x18	; 24
     ec6:	a6 1b       	sub	r26, r22
     ec8:	b7 0b       	sbc	r27, r23
     eca:	8b ea       	ldi	r24, 0xAB	; 171
     ecc:	48 9f       	mul	r20, r24
     ece:	81 2d       	mov	r24, r1
     ed0:	11 24       	eor	r1, r1
     ed2:	86 95       	lsr	r24
     ed4:	86 95       	lsr	r24
     ed6:	86 95       	lsr	r24
     ed8:	28 2f       	mov	r18, r24
     eda:	22 0f       	add	r18, r18
     edc:	82 0f       	add	r24, r18
     ede:	28 2f       	mov	r18, r24
     ee0:	22 0f       	add	r18, r18
     ee2:	22 0f       	add	r18, r18
     ee4:	84 2f       	mov	r24, r20
     ee6:	82 1b       	sub	r24, r18
     ee8:	28 2f       	mov	r18, r24
     eea:	30 e0       	ldi	r19, 0x00	; 0
     eec:	bd 01       	movw	r22, r26
     eee:	66 0f       	add	r22, r22
     ef0:	77 1f       	adc	r23, r23
     ef2:	a6 0f       	add	r26, r22
     ef4:	b7 1f       	adc	r27, r23
     ef6:	a8 51       	subi	r26, 0x18	; 24
     ef8:	be 4d       	sbci	r27, 0xDE	; 222
     efa:	f9 01       	movw	r30, r18
     efc:	ee 0f       	add	r30, r30
     efe:	ff 1f       	adc	r31, r31
     f00:	2e 0f       	add	r18, r30
     f02:	3f 1f       	adc	r19, r31
     f04:	f9 01       	movw	r30, r18
     f06:	e6 5c       	subi	r30, 0xC6	; 198
     f08:	ff 4d       	sbci	r31, 0xDF	; 223
     f0a:	60 81       	ld	r22, Z
     f0c:	71 81       	ldd	r23, Z+1	; 0x01
     f0e:	82 81       	ldd	r24, Z+2	; 0x02
     f10:	6d 93       	st	X+, r22
     f12:	7d 93       	st	X+, r23
     f14:	8c 93       	st	X, r24
     f16:	4f 5f       	subi	r20, 0xFF	; 255
		{
			bump = 1;
		}
	}
	
	for (i = 0; i < half; i++)
     f18:	9f 5f       	subi	r25, 0xFF	; 255
     f1a:	98 31       	cpi	r25, 0x18	; 24
     f1c:	08 f4       	brcc	.+2      	; 0xf20 <play_lights_nyan+0x13e>
     f1e:	82 cf       	rjmp	.-252    	; 0xe24 <play_lights_nyan+0x42>
			leds[i+half  - bump] = rainbow_leds[j++ % RAINBOW_LED_COUNT];
		}
				
	}
	
	leds[margin + bump] = (ws2812drv_led_t)game_colors[LED_MAX_ON];
     f20:	80 91 25 20 	lds	r24, 0x2025	; 0x802025 <bump>
     f24:	08 2e       	mov	r0, r24
     f26:	00 0c       	add	r0, r0
     f28:	99 0b       	sbc	r25, r25
     f2a:	9c 01       	movw	r18, r24
     f2c:	2a 5f       	subi	r18, 0xFA	; 250
     f2e:	3f 4f       	sbci	r19, 0xFF	; 255
     f30:	f9 01       	movw	r30, r18
     f32:	ee 0f       	add	r30, r30
     f34:	ff 1f       	adc	r31, r31
     f36:	e2 0f       	add	r30, r18
     f38:	f3 1f       	adc	r31, r19
     f3a:	e8 51       	subi	r30, 0x18	; 24
     f3c:	fe 4d       	sbci	r31, 0xDE	; 222
     f3e:	20 e1       	ldi	r18, 0x10	; 16
     f40:	20 83       	st	Z, r18
     f42:	21 83       	std	Z+1, r18	; 0x01
     f44:	22 83       	std	Z+2, r18	; 0x02
     f46:	20 83       	st	Z, r18
     f48:	21 83       	std	Z+1, r18	; 0x01
     f4a:	22 83       	std	Z+2, r18	; 0x02
	leds[(half - margin - 1) + bump] = (ws2812drv_led_t)game_colors[LED_MAX_ON];
     f4c:	41 96       	adiw	r24, 0x11	; 17
     f4e:	fc 01       	movw	r30, r24
     f50:	ee 0f       	add	r30, r30
     f52:	ff 1f       	adc	r31, r31
     f54:	e8 0f       	add	r30, r24
     f56:	f9 1f       	adc	r31, r25
     f58:	e8 51       	subi	r30, 0x18	; 24
     f5a:	fe 4d       	sbci	r31, 0xDE	; 222
     f5c:	20 83       	st	Z, r18
     f5e:	21 83       	std	Z+1, r18	; 0x01
     f60:	22 83       	std	Z+2, r18	; 0x02
     f62:	20 83       	st	Z, r18
     f64:	21 83       	std	Z+1, r18	; 0x01
     f66:	22 83       	std	Z+2, r18	; 0x02
	
	
	
	for (i = GRUMBO_LED_COUNT; i < LED_COUNT; i++)
     f68:	c0 e3       	ldi	r28, 0x30	; 48
     f6a:	2c c0       	rjmp	.+88     	; 0xfc4 <play_lights_nyan+0x1e2>
	{

		if ((rand() % 23))
     f6c:	0e 94 fd 13 	call	0x27fa	; 0x27fa <rand>
     f70:	67 e1       	ldi	r22, 0x17	; 23
     f72:	70 e0       	ldi	r23, 0x00	; 0
     f74:	0e 94 68 12 	call	0x24d0	; 0x24d0 <__divmodhi4>
     f78:	89 2b       	or	r24, r25
     f7a:	99 f0       	breq	.+38     	; 0xfa2 <play_lights_nyan+0x1c0>
		{
			leds[i] = (ws2812drv_led_t){ .r=0, .g=0, .b = MAX_BRIGHTNESS};
     f7c:	8c 2f       	mov	r24, r28
     f7e:	90 e0       	ldi	r25, 0x00	; 0
     f80:	c1 2c       	mov	r12, r1
     f82:	d1 2c       	mov	r13, r1
     f84:	68 94       	set
     f86:	ee 24       	eor	r14, r14
     f88:	e6 f8       	bld	r14, 6
     f8a:	fc 01       	movw	r30, r24
     f8c:	ee 0f       	add	r30, r30
     f8e:	ff 1f       	adc	r31, r31
     f90:	8e 0f       	add	r24, r30
     f92:	9f 1f       	adc	r25, r31
     f94:	fc 01       	movw	r30, r24
     f96:	e8 51       	subi	r30, 0x18	; 24
     f98:	fe 4d       	sbci	r31, 0xDE	; 222
     f9a:	c0 82       	st	Z, r12
     f9c:	d1 82       	std	Z+1, r13	; 0x01
     f9e:	e2 82       	std	Z+2, r14	; 0x02
     fa0:	10 c0       	rjmp	.+32     	; 0xfc2 <play_lights_nyan+0x1e0>
		}
		else
		{
			leds[i] = (ws2812drv_led_t)game_colors[LED_MAX_ON];
     fa2:	ec 2f       	mov	r30, r28
     fa4:	f0 e0       	ldi	r31, 0x00	; 0
     fa6:	cf 01       	movw	r24, r30
     fa8:	88 0f       	add	r24, r24
     faa:	99 1f       	adc	r25, r25
     fac:	e8 0f       	add	r30, r24
     fae:	f9 1f       	adc	r31, r25
     fb0:	e8 51       	subi	r30, 0x18	; 24
     fb2:	fe 4d       	sbci	r31, 0xDE	; 222
     fb4:	80 e1       	ldi	r24, 0x10	; 16
     fb6:	80 83       	st	Z, r24
     fb8:	81 83       	std	Z+1, r24	; 0x01
     fba:	82 83       	std	Z+2, r24	; 0x02
     fbc:	80 83       	st	Z, r24
     fbe:	81 83       	std	Z+1, r24	; 0x01
     fc0:	82 83       	std	Z+2, r24	; 0x02
	leds[margin + bump] = (ws2812drv_led_t)game_colors[LED_MAX_ON];
	leds[(half - margin - 1) + bump] = (ws2812drv_led_t)game_colors[LED_MAX_ON];
	
	
	
	for (i = GRUMBO_LED_COUNT; i < LED_COUNT; i++)
     fc2:	cf 5f       	subi	r28, 0xFF	; 255
     fc4:	c8 33       	cpi	r28, 0x38	; 56
     fc6:	90 f2       	brcs	.-92     	; 0xf6c <play_lights_nyan+0x18a>
		{
			leds[i] = (ws2812drv_led_t)game_colors[LED_MAX_ON];
		}
	}
	
	offset++;
     fc8:	80 91 a9 21 	lds	r24, 0x21A9	; 0x8021a9 <offset>
     fcc:	8f 5f       	subi	r24, 0xFF	; 255
     fce:	80 93 a9 21 	sts	0x21A9, r24	; 0x8021a9 <offset>
	ws2812drv_start_transfer(leds, LED_COUNT);
     fd2:	68 e3       	ldi	r22, 0x38	; 56
     fd4:	70 e0       	ldi	r23, 0x00	; 0
     fd6:	88 ee       	ldi	r24, 0xE8	; 232
     fd8:	91 e2       	ldi	r25, 0x21	; 33
     fda:	0e 94 5a 12 	call	0x24b4	; 0x24b4 <ws2812drv_start_transfer>
}
     fde:	cf 91       	pop	r28
     fe0:	ef 90       	pop	r14
     fe2:	df 90       	pop	r13
     fe4:	cf 90       	pop	r12
     fe6:	8f 90       	pop	r8
     fe8:	7f 90       	pop	r7
     fea:	6f 90       	pop	r6
     fec:	08 95       	ret

00000fee <play_lights_portal>:

void play_lights_portal()
{
     fee:	6f 92       	push	r6
     ff0:	7f 92       	push	r7
     ff2:	8f 92       	push	r8
     ff4:	cf 92       	push	r12
     ff6:	df 92       	push	r13
     ff8:	ef 92       	push	r14
     ffa:	cf 93       	push	r28
     ffc:	df 93       	push	r29
	uint8_t i = 0;
	uint8_t half = GRUMBO_LED_COUNT / 2;
	
	if (offset <= 16)
     ffe:	80 91 a9 21 	lds	r24, 0x21A9	; 0x8021a9 <offset>
    1002:	81 31       	cpi	r24, 0x11	; 17
    1004:	30 f4       	brcc	.+12     	; 0x1012 <play_lights_portal+0x24>
	{
		bump += 4;
    1006:	90 91 25 20 	lds	r25, 0x2025	; 0x802025 <bump>
    100a:	9c 5f       	subi	r25, 0xFC	; 252
    100c:	90 93 25 20 	sts	0x2025, r25	; 0x802025 <bump>
    1010:	05 c0       	rjmp	.+10     	; 0x101c <play_lights_portal+0x2e>
	}
	else
	{
		bump -= 4;
    1012:	90 91 25 20 	lds	r25, 0x2025	; 0x802025 <bump>
    1016:	94 50       	subi	r25, 0x04	; 4
    1018:	90 93 25 20 	sts	0x2025, r25	; 0x802025 <bump>
	}
	
	if (offset == 32)
    101c:	80 32       	cpi	r24, 0x20	; 32
    101e:	11 f4       	brne	.+4      	; 0x1024 <play_lights_portal+0x36>
	{
		offset = 0;
    1020:	10 92 a9 21 	sts	0x21A9, r1	; 0x8021a9 <offset>
	offset++;
	ws2812drv_start_transfer(leds, LED_COUNT);
}

void play_lights_portal()
{
    1024:	a0 e0       	ldi	r26, 0x00	; 0
    1026:	34 c0       	rjmp	.+104    	; 0x1090 <play_lights_portal+0xa2>
	
	for (i = 0; i < half; i++)
	{
		leds[i] = (ws2812drv_led_t){
			.r = 0,
			.g = ((i * 2) + bump) / 8,
    1028:	2a 2f       	mov	r18, r26
    102a:	30 e0       	ldi	r19, 0x00	; 0
    102c:	a9 01       	movw	r20, r18
    102e:	44 0f       	add	r20, r20
    1030:	55 1f       	adc	r21, r21
    1032:	80 91 25 20 	lds	r24, 0x2025	; 0x802025 <bump>
    1036:	68 2f       	mov	r22, r24
    1038:	88 0f       	add	r24, r24
    103a:	77 0b       	sbc	r23, r23
    103c:	46 0f       	add	r20, r22
    103e:	57 1f       	adc	r21, r23
    1040:	55 23       	and	r21, r21
    1042:	14 f4       	brge	.+4      	; 0x1048 <play_lights_portal+0x5a>
    1044:	49 5f       	subi	r20, 0xF9	; 249
    1046:	5f 4f       	sbci	r21, 0xFF	; 255
    1048:	55 95       	asr	r21
    104a:	47 95       	ror	r20
    104c:	55 95       	asr	r21
    104e:	47 95       	ror	r20
    1050:	55 95       	asr	r21
    1052:	47 95       	ror	r20
			.b = ((MAX_BRIGHTNESS - (i * 2)) + bump) / 4
    1054:	80 e2       	ldi	r24, 0x20	; 32
    1056:	90 e0       	ldi	r25, 0x00	; 0
    1058:	82 1b       	sub	r24, r18
    105a:	93 0b       	sbc	r25, r19
    105c:	88 0f       	add	r24, r24
    105e:	99 1f       	adc	r25, r25
    1060:	86 0f       	add	r24, r22
    1062:	97 1f       	adc	r25, r23
    1064:	99 23       	and	r25, r25
    1066:	0c f4       	brge	.+2      	; 0x106a <play_lights_portal+0x7c>
    1068:	03 96       	adiw	r24, 0x03	; 3
    106a:	95 95       	asr	r25
    106c:	87 95       	ror	r24
    106e:	95 95       	asr	r25
    1070:	87 95       	ror	r24
		offset = 0;
	}
	
	for (i = 0; i < half; i++)
	{
		leds[i] = (ws2812drv_led_t){
    1072:	64 2e       	mov	r6, r20
    1074:	71 2c       	mov	r7, r1
    1076:	88 2e       	mov	r8, r24
    1078:	f9 01       	movw	r30, r18
    107a:	ee 0f       	add	r30, r30
    107c:	ff 1f       	adc	r31, r31
    107e:	2e 0f       	add	r18, r30
    1080:	3f 1f       	adc	r19, r31
    1082:	f9 01       	movw	r30, r18
    1084:	e8 51       	subi	r30, 0x18	; 24
    1086:	fe 4d       	sbci	r31, 0xDE	; 222
    1088:	60 82       	st	Z, r6
    108a:	71 82       	std	Z+1, r7	; 0x01
    108c:	82 82       	std	Z+2, r8	; 0x02
	if (offset == 32)
	{
		offset = 0;
	}
	
	for (i = 0; i < half; i++)
    108e:	af 5f       	subi	r26, 0xFF	; 255
    1090:	a8 31       	cpi	r26, 0x18	; 24
    1092:	50 f2       	brcs	.-108    	; 0x1028 <play_lights_portal+0x3a>
    1094:	a0 e0       	ldi	r26, 0x00	; 0
    1096:	3f c0       	rjmp	.+126    	; 0x1116 <play_lights_portal+0x128>
		
	}
	
	for (i = 0; i < half; i++)
	{
		leds[i + half] = (ws2812drv_led_t){
    1098:	6a 2f       	mov	r22, r26
    109a:	70 e0       	ldi	r23, 0x00	; 0
    109c:	9b 01       	movw	r18, r22
    109e:	28 5e       	subi	r18, 0xE8	; 232
    10a0:	3f 4f       	sbci	r19, 0xFF	; 255
			.r = ((MAX_BRIGHTNESS - (i * 2)) + bump) / 2,
			.g = ((MAX_BRIGHTNESS - (i * 2)) + bump) / 4,
    10a2:	80 e2       	ldi	r24, 0x20	; 32
    10a4:	90 e0       	ldi	r25, 0x00	; 0
    10a6:	86 1b       	sub	r24, r22
    10a8:	97 0b       	sbc	r25, r23
    10aa:	88 0f       	add	r24, r24
    10ac:	99 1f       	adc	r25, r25
    10ae:	40 91 25 20 	lds	r20, 0x2025	; 0x802025 <bump>
    10b2:	84 0f       	add	r24, r20
    10b4:	91 1d       	adc	r25, r1
    10b6:	47 fd       	sbrc	r20, 7
    10b8:	9a 95       	dec	r25
    10ba:	fc 01       	movw	r30, r24
    10bc:	99 23       	and	r25, r25
    10be:	0c f4       	brge	.+2      	; 0x10c2 <play_lights_portal+0xd4>
    10c0:	33 96       	adiw	r30, 0x03	; 3
    10c2:	f5 95       	asr	r31
    10c4:	e7 95       	ror	r30
    10c6:	f5 95       	asr	r31
    10c8:	e7 95       	ror	r30
	}
	
	for (i = 0; i < half; i++)
	{
		leds[i + half] = (ws2812drv_led_t){
			.r = ((MAX_BRIGHTNESS - (i * 2)) + bump) / 2,
    10ca:	ac 01       	movw	r20, r24
    10cc:	99 23       	and	r25, r25
    10ce:	14 f4       	brge	.+4      	; 0x10d4 <play_lights_portal+0xe6>
    10d0:	4f 5f       	subi	r20, 0xFF	; 255
    10d2:	5f 4f       	sbci	r21, 0xFF	; 255
    10d4:	55 95       	asr	r21
    10d6:	47 95       	ror	r20
			.g = ((MAX_BRIGHTNESS - (i * 2)) + bump) / 4,
			.b = (half-i)/16
    10d8:	88 e1       	ldi	r24, 0x18	; 24
    10da:	90 e0       	ldi	r25, 0x00	; 0
    10dc:	ec 01       	movw	r28, r24
    10de:	c6 1b       	sub	r28, r22
    10e0:	d7 0b       	sbc	r29, r23
    10e2:	ce 01       	movw	r24, r28
    10e4:	0a f4       	brpl	.+2      	; 0x10e8 <play_lights_portal+0xfa>
    10e6:	0f 96       	adiw	r24, 0x0f	; 15
    10e8:	95 95       	asr	r25
    10ea:	87 95       	ror	r24
    10ec:	95 95       	asr	r25
    10ee:	87 95       	ror	r24
    10f0:	95 95       	asr	r25
    10f2:	87 95       	ror	r24
    10f4:	95 95       	asr	r25
    10f6:	87 95       	ror	r24
		
	}
	
	for (i = 0; i < half; i++)
	{
		leds[i + half] = (ws2812drv_led_t){
    10f8:	ce 2e       	mov	r12, r30
    10fa:	d4 2e       	mov	r13, r20
    10fc:	e8 2e       	mov	r14, r24
    10fe:	f9 01       	movw	r30, r18
    1100:	ee 0f       	add	r30, r30
    1102:	ff 1f       	adc	r31, r31
    1104:	2e 0f       	add	r18, r30
    1106:	3f 1f       	adc	r19, r31
    1108:	f9 01       	movw	r30, r18
    110a:	e8 51       	subi	r30, 0x18	; 24
    110c:	fe 4d       	sbci	r31, 0xDE	; 222
    110e:	c0 82       	st	Z, r12
    1110:	d1 82       	std	Z+1, r13	; 0x01
    1112:	e2 82       	std	Z+2, r14	; 0x02
			.b = ((MAX_BRIGHTNESS - (i * 2)) + bump) / 4
		};
		
	}
	
	for (i = 0; i < half; i++)
    1114:	af 5f       	subi	r26, 0xFF	; 255
    1116:	a8 31       	cpi	r26, 0x18	; 24
    1118:	08 f4       	brcc	.+2      	; 0x111c <play_lights_portal+0x12e>
    111a:	be cf       	rjmp	.-132    	; 0x1098 <play_lights_portal+0xaa>
			.b = (half-i)/16
		};
			
	}
	
	offset++;
    111c:	80 91 a9 21 	lds	r24, 0x21A9	; 0x8021a9 <offset>
    1120:	8f 5f       	subi	r24, 0xFF	; 255
    1122:	80 93 a9 21 	sts	0x21A9, r24	; 0x8021a9 <offset>
	ws2812drv_start_transfer(leds, LED_COUNT);
    1126:	68 e3       	ldi	r22, 0x38	; 56
    1128:	70 e0       	ldi	r23, 0x00	; 0
    112a:	88 ee       	ldi	r24, 0xE8	; 232
    112c:	91 e2       	ldi	r25, 0x21	; 33
    112e:	0e 94 5a 12 	call	0x24b4	; 0x24b4 <ws2812drv_start_transfer>
}
    1132:	df 91       	pop	r29
    1134:	cf 91       	pop	r28
    1136:	ef 90       	pop	r14
    1138:	df 90       	pop	r13
    113a:	cf 90       	pop	r12
    113c:	8f 90       	pop	r8
    113e:	7f 90       	pop	r7
    1140:	6f 90       	pop	r6
    1142:	08 95       	ret

00001144 <play_lights_game>:

void play_lights_game(uint16_t dingle_pos, uint8_t buttons)
{
    1144:	cf 92       	push	r12
    1146:	df 92       	push	r13
    1148:	ef 92       	push	r14
    114a:	cf 93       	push	r28
    114c:	c6 2f       	mov	r28, r22
	uint8_t i = 0;
    114e:	40 e0       	ldi	r20, 0x00	; 0
	uint8_t quarter = GRUMBO_LED_COUNT / 4;
	uint8_t divisor = 32;
	uint8_t b_i;
	for (; i < GRUMBO_LED_COUNT; i++)
    1150:	32 c0       	rjmp	.+100    	; 0x11b6 <play_lights_game+0x72>
	{
		b_i = i/quarter;
    1152:	eb ea       	ldi	r30, 0xAB	; 171
    1154:	4e 9f       	mul	r20, r30
    1156:	e1 2d       	mov	r30, r1
    1158:	11 24       	eor	r1, r1
    115a:	e6 95       	lsr	r30
    115c:	e6 95       	lsr	r30
    115e:	e6 95       	lsr	r30
		leds[i] = (ws2812drv_led_t){game_colors[b_i].r / divisor, game_colors[b_i].g / divisor, game_colors[b_i].b / divisor};
    1160:	24 2f       	mov	r18, r20
    1162:	30 e0       	ldi	r19, 0x00	; 0
    1164:	f0 e0       	ldi	r31, 0x00	; 0
    1166:	bf 01       	movw	r22, r30
    1168:	66 0f       	add	r22, r22
    116a:	77 1f       	adc	r23, r23
    116c:	e6 0f       	add	r30, r22
    116e:	f7 1f       	adc	r31, r23
    1170:	ed 58       	subi	r30, 0x8D	; 141
    1172:	ff 4d       	sbci	r31, 0xDF	; 223
    1174:	71 81       	ldd	r23, Z+1	; 0x01
    1176:	60 81       	ld	r22, Z
    1178:	52 81       	ldd	r21, Z+2	; 0x02
    117a:	c7 2e       	mov	r12, r23
    117c:	c6 94       	lsr	r12
    117e:	c6 94       	lsr	r12
    1180:	c6 94       	lsr	r12
    1182:	c6 94       	lsr	r12
    1184:	c6 94       	lsr	r12
    1186:	d6 2e       	mov	r13, r22
    1188:	d6 94       	lsr	r13
    118a:	d6 94       	lsr	r13
    118c:	d6 94       	lsr	r13
    118e:	d6 94       	lsr	r13
    1190:	d6 94       	lsr	r13
    1192:	e5 2e       	mov	r14, r21
    1194:	e6 94       	lsr	r14
    1196:	e6 94       	lsr	r14
    1198:	e6 94       	lsr	r14
    119a:	e6 94       	lsr	r14
    119c:	e6 94       	lsr	r14
    119e:	f9 01       	movw	r30, r18
    11a0:	ee 0f       	add	r30, r30
    11a2:	ff 1f       	adc	r31, r31
    11a4:	2e 0f       	add	r18, r30
    11a6:	3f 1f       	adc	r19, r31
    11a8:	f9 01       	movw	r30, r18
    11aa:	e8 51       	subi	r30, 0x18	; 24
    11ac:	fe 4d       	sbci	r31, 0xDE	; 222
    11ae:	c0 82       	st	Z, r12
    11b0:	d1 82       	std	Z+1, r13	; 0x01
    11b2:	e2 82       	std	Z+2, r14	; 0x02
{
	uint8_t i = 0;
	uint8_t quarter = GRUMBO_LED_COUNT / 4;
	uint8_t divisor = 32;
	uint8_t b_i;
	for (; i < GRUMBO_LED_COUNT; i++)
    11b4:	4f 5f       	subi	r20, 0xFF	; 255
    11b6:	40 33       	cpi	r20, 0x30	; 48
    11b8:	60 f2       	brcs	.-104    	; 0x1152 <play_lights_game+0xe>
	{
		b_i = i/quarter;
		leds[i] = (ws2812drv_led_t){game_colors[b_i].r / divisor, game_colors[b_i].g / divisor, game_colors[b_i].b / divisor};
	}	
	
	overlay_dingle_pos(dingle_pos);	
    11ba:	0e 94 0e 06 	call	0xc1c	; 0xc1c <overlay_dingle_pos>
	play_lights_overlay_note_button_leds(buttons);
    11be:	8c 2f       	mov	r24, r28
    11c0:	0e 94 7d 05 	call	0xafa	; 0xafa <play_lights_overlay_note_button_leds>
	ws2812drv_start_transfer(leds, LED_COUNT);
    11c4:	68 e3       	ldi	r22, 0x38	; 56
    11c6:	70 e0       	ldi	r23, 0x00	; 0
    11c8:	88 ee       	ldi	r24, 0xE8	; 232
    11ca:	91 e2       	ldi	r25, 0x21	; 33
    11cc:	0e 94 5a 12 	call	0x24b4	; 0x24b4 <ws2812drv_start_transfer>
}
    11d0:	cf 91       	pop	r28
    11d2:	ef 90       	pop	r14
    11d4:	df 90       	pop	r13
    11d6:	cf 90       	pop	r12
    11d8:	08 95       	ret

000011da <play_lights_game_over>:

void play_lights_game_over()
{
    11da:	cf 92       	push	r12
    11dc:	df 92       	push	r13
    11de:	ef 92       	push	r14
	uint8_t i = 0;
	ws2812drv_led_t color;
	
	if (!(offset++ % 4))
    11e0:	80 91 a9 21 	lds	r24, 0x21A9	; 0x8021a9 <offset>
    11e4:	91 e0       	ldi	r25, 0x01	; 1
    11e6:	98 0f       	add	r25, r24
    11e8:	90 93 a9 21 	sts	0x21A9, r25	; 0x8021a9 <offset>
    11ec:	83 70       	andi	r24, 0x03	; 3
    11ee:	49 f4       	brne	.+18     	; 0x1202 <play_lights_game_over+0x28>
	{
		color = (ws2812drv_led_t){.r=MAX_BRIGHTNESS, .g=0, .b=0};
    11f0:	c1 2c       	mov	r12, r1
    11f2:	d1 2c       	mov	r13, r1
    11f4:	e1 2c       	mov	r14, r1
    11f6:	68 94       	set
    11f8:	dd 24       	eor	r13, r13
    11fa:	d6 f8       	bld	r13, 6
    11fc:	e1 2c       	mov	r14, r1
	play_lights_overlay_note_button_leds(buttons);
	ws2812drv_start_transfer(leds, LED_COUNT);
}

void play_lights_game_over()
{
    11fe:	20 e0       	ldi	r18, 0x00	; 0
    1200:	12 c0       	rjmp	.+36     	; 0x1226 <play_lights_game_over+0x4c>
	{
		color = (ws2812drv_led_t){.r=MAX_BRIGHTNESS, .g=0, .b=0};
	}
	else
	{
		color = (ws2812drv_led_t)game_colors[LED_OFF];
    1202:	c1 2c       	mov	r12, r1
    1204:	d1 2c       	mov	r13, r1
    1206:	e1 2c       	mov	r14, r1
    1208:	fa cf       	rjmp	.-12     	; 0x11fe <play_lights_game_over+0x24>
	}
	
	for (i = 0; i < LED_COUNT; i++)
	{
		leds[i] = color;
    120a:	82 2f       	mov	r24, r18
    120c:	90 e0       	ldi	r25, 0x00	; 0
    120e:	fc 01       	movw	r30, r24
    1210:	ee 0f       	add	r30, r30
    1212:	ff 1f       	adc	r31, r31
    1214:	8e 0f       	add	r24, r30
    1216:	9f 1f       	adc	r25, r31
    1218:	fc 01       	movw	r30, r24
    121a:	e8 51       	subi	r30, 0x18	; 24
    121c:	fe 4d       	sbci	r31, 0xDE	; 222
    121e:	c0 82       	st	Z, r12
    1220:	d1 82       	std	Z+1, r13	; 0x01
    1222:	e2 82       	std	Z+2, r14	; 0x02
	else
	{
		color = (ws2812drv_led_t)game_colors[LED_OFF];
	}
	
	for (i = 0; i < LED_COUNT; i++)
    1224:	2f 5f       	subi	r18, 0xFF	; 255
    1226:	28 33       	cpi	r18, 0x38	; 56
    1228:	80 f3       	brcs	.-32     	; 0x120a <play_lights_game_over+0x30>
	{
		leds[i] = color;
	}
	ws2812drv_start_transfer(leds, LED_COUNT);
    122a:	68 e3       	ldi	r22, 0x38	; 56
    122c:	70 e0       	ldi	r23, 0x00	; 0
    122e:	88 ee       	ldi	r24, 0xE8	; 232
    1230:	91 e2       	ldi	r25, 0x21	; 33
    1232:	0e 94 5a 12 	call	0x24b4	; 0x24b4 <ws2812drv_start_transfer>
}
    1236:	ef 90       	pop	r14
    1238:	df 90       	pop	r13
    123a:	cf 90       	pop	r12
    123c:	08 95       	ret

0000123e <play_lights_won_easy_game>:

void play_lights_won_easy_game()
{
    123e:	cf 92       	push	r12
    1240:	df 92       	push	r13
    1242:	ef 92       	push	r14
	
	uint8_t i = 0;
    1244:	40 e0       	ldi	r20, 0x00	; 0
	uint8_t quarter = GRUMBO_LED_COUNT / 4;
	uint8_t b_i;
	for (; i < GRUMBO_LED_COUNT; i++)
    1246:	25 c0       	rjmp	.+74     	; 0x1292 <play_lights_won_easy_game+0x54>
	{
		b_i = i/quarter;
    1248:	8b ea       	ldi	r24, 0xAB	; 171
    124a:	48 9f       	mul	r20, r24
    124c:	81 2d       	mov	r24, r1
    124e:	11 24       	eor	r1, r1
    1250:	86 95       	lsr	r24
    1252:	86 95       	lsr	r24
    1254:	86 95       	lsr	r24
		b_i += offset;
    1256:	90 91 a9 21 	lds	r25, 0x21A9	; 0x8021a9 <offset>
    125a:	89 0f       	add	r24, r25
		b_i %= 4;
    125c:	83 70       	andi	r24, 0x03	; 3
			
		leds[i] = game_colors[b_i];
    125e:	24 2f       	mov	r18, r20
    1260:	30 e0       	ldi	r19, 0x00	; 0
    1262:	90 e0       	ldi	r25, 0x00	; 0
    1264:	d9 01       	movw	r26, r18
    1266:	aa 0f       	add	r26, r26
    1268:	bb 1f       	adc	r27, r27
    126a:	2a 0f       	add	r18, r26
    126c:	3b 1f       	adc	r19, r27
    126e:	d9 01       	movw	r26, r18
    1270:	a8 51       	subi	r26, 0x18	; 24
    1272:	be 4d       	sbci	r27, 0xDE	; 222
    1274:	fc 01       	movw	r30, r24
    1276:	ee 0f       	add	r30, r30
    1278:	ff 1f       	adc	r31, r31
    127a:	8e 0f       	add	r24, r30
    127c:	9f 1f       	adc	r25, r31
    127e:	fc 01       	movw	r30, r24
    1280:	ed 58       	subi	r30, 0x8D	; 141
    1282:	ff 4d       	sbci	r31, 0xDF	; 223
    1284:	c0 80       	ld	r12, Z
    1286:	d1 80       	ldd	r13, Z+1	; 0x01
    1288:	e2 80       	ldd	r14, Z+2	; 0x02
    128a:	cd 92       	st	X+, r12
    128c:	dd 92       	st	X+, r13
    128e:	ec 92       	st	X, r14
{
	
	uint8_t i = 0;
	uint8_t quarter = GRUMBO_LED_COUNT / 4;
	uint8_t b_i;
	for (; i < GRUMBO_LED_COUNT; i++)
    1290:	4f 5f       	subi	r20, 0xFF	; 255
    1292:	40 33       	cpi	r20, 0x30	; 48
    1294:	c8 f2       	brcs	.-78     	; 0x1248 <play_lights_won_easy_game+0xa>
		b_i %= 4;
			
		leds[i] = game_colors[b_i];
	}
	
	offset++;
    1296:	80 91 a9 21 	lds	r24, 0x21A9	; 0x8021a9 <offset>
    129a:	8f 5f       	subi	r24, 0xFF	; 255
    129c:	80 93 a9 21 	sts	0x21A9, r24	; 0x8021a9 <offset>
	
	leds[GRUMBO_LED_COUNT] = game_colors[BUTTON_0];
    12a0:	e8 e7       	ldi	r30, 0x78	; 120
    12a2:	f2 e2       	ldi	r31, 0x22	; 34
    12a4:	10 82       	st	Z, r1
    12a6:	80 e4       	ldi	r24, 0x40	; 64
    12a8:	81 83       	std	Z+1, r24	; 0x01
    12aa:	12 82       	std	Z+2, r1	; 0x02
    12ac:	10 82       	st	Z, r1
    12ae:	81 83       	std	Z+1, r24	; 0x01
    12b0:	12 82       	std	Z+2, r1	; 0x02
	leds[GRUMBO_LED_COUNT + 1] = game_colors[BUTTON_0];
    12b2:	eb e7       	ldi	r30, 0x7B	; 123
    12b4:	f2 e2       	ldi	r31, 0x22	; 34
    12b6:	10 82       	st	Z, r1
    12b8:	81 83       	std	Z+1, r24	; 0x01
    12ba:	12 82       	std	Z+2, r1	; 0x02
    12bc:	10 82       	st	Z, r1
    12be:	81 83       	std	Z+1, r24	; 0x01
    12c0:	12 82       	std	Z+2, r1	; 0x02

	leds[GRUMBO_LED_COUNT + 2] = game_colors[BUTTON_1];
    12c2:	ee e7       	ldi	r30, 0x7E	; 126
    12c4:	f2 e2       	ldi	r31, 0x22	; 34
    12c6:	80 83       	st	Z, r24
    12c8:	11 82       	std	Z+1, r1	; 0x01
    12ca:	12 82       	std	Z+2, r1	; 0x02
    12cc:	80 83       	st	Z, r24
    12ce:	11 82       	std	Z+1, r1	; 0x01
    12d0:	12 82       	std	Z+2, r1	; 0x02
	leds[GRUMBO_LED_COUNT + 3] = game_colors[BUTTON_1];
    12d2:	e1 e8       	ldi	r30, 0x81	; 129
    12d4:	f2 e2       	ldi	r31, 0x22	; 34
    12d6:	80 83       	st	Z, r24
    12d8:	11 82       	std	Z+1, r1	; 0x01
    12da:	12 82       	std	Z+2, r1	; 0x02
    12dc:	80 83       	st	Z, r24
    12de:	11 82       	std	Z+1, r1	; 0x01
    12e0:	12 82       	std	Z+2, r1	; 0x02

	leds[GRUMBO_LED_COUNT + 4] = game_colors[BUTTON_2];
    12e2:	e4 e8       	ldi	r30, 0x84	; 132
    12e4:	f2 e2       	ldi	r31, 0x22	; 34
    12e6:	10 82       	st	Z, r1
    12e8:	11 82       	std	Z+1, r1	; 0x01
    12ea:	82 83       	std	Z+2, r24	; 0x02
    12ec:	10 82       	st	Z, r1
    12ee:	11 82       	std	Z+1, r1	; 0x01
    12f0:	82 83       	std	Z+2, r24	; 0x02
	leds[GRUMBO_LED_COUNT + 5] = game_colors[BUTTON_2];
    12f2:	e7 e8       	ldi	r30, 0x87	; 135
    12f4:	f2 e2       	ldi	r31, 0x22	; 34
    12f6:	10 82       	st	Z, r1
    12f8:	11 82       	std	Z+1, r1	; 0x01
    12fa:	82 83       	std	Z+2, r24	; 0x02
    12fc:	10 82       	st	Z, r1
    12fe:	11 82       	std	Z+1, r1	; 0x01
    1300:	82 83       	std	Z+2, r24	; 0x02

	leds[GRUMBO_LED_COUNT + 6] = game_colors[BUTTON_3];
    1302:	ea e8       	ldi	r30, 0x8A	; 138
    1304:	f2 e2       	ldi	r31, 0x22	; 34
    1306:	80 e2       	ldi	r24, 0x20	; 32
    1308:	80 83       	st	Z, r24
    130a:	81 83       	std	Z+1, r24	; 0x01
    130c:	12 82       	std	Z+2, r1	; 0x02
    130e:	80 83       	st	Z, r24
    1310:	81 83       	std	Z+1, r24	; 0x01
    1312:	12 82       	std	Z+2, r1	; 0x02
	leds[GRUMBO_LED_COUNT + 7] = game_colors[BUTTON_3];
    1314:	ed e8       	ldi	r30, 0x8D	; 141
    1316:	f2 e2       	ldi	r31, 0x22	; 34
    1318:	80 83       	st	Z, r24
    131a:	81 83       	std	Z+1, r24	; 0x01
    131c:	12 82       	std	Z+2, r1	; 0x02
    131e:	80 83       	st	Z, r24
    1320:	81 83       	std	Z+1, r24	; 0x01
    1322:	12 82       	std	Z+2, r1	; 0x02


	ws2812drv_start_transfer(leds, LED_COUNT);
    1324:	68 e3       	ldi	r22, 0x38	; 56
    1326:	70 e0       	ldi	r23, 0x00	; 0
    1328:	88 ee       	ldi	r24, 0xE8	; 232
    132a:	91 e2       	ldi	r25, 0x21	; 33
    132c:	0e 94 5a 12 	call	0x24b4	; 0x24b4 <ws2812drv_start_transfer>
}
    1330:	ef 90       	pop	r14
    1332:	df 90       	pop	r13
    1334:	cf 90       	pop	r12
    1336:	08 95       	ret

00001338 <play_lights_easter_egg>:

void play_lights_easter_egg(uint16_t dingle_pos, uint8_t buttons)
{
    1338:	cf 93       	push	r28
    133a:	df 93       	push	r29
    133c:	ac 01       	movw	r20, r24
    133e:	d6 2f       	mov	r29, r22
		uint8_t i = 0;
    1340:	90 e0       	ldi	r25, 0x00	; 0
		uint8_t half = GRUMBO_LED_COUNT / 2;		
		
		for (;i<LED_COUNT; i++)
    1342:	11 c0       	rjmp	.+34     	; 0x1366 <play_lights_easter_egg+0x2e>
		{
			leds[i] = (ws2812drv_led_t){.r = MAX_BRIGHTNESS / 2, .g = MAX_BRIGHTNESS / 4, .b = 0};			
    1344:	29 2f       	mov	r18, r25
    1346:	30 e0       	ldi	r19, 0x00	; 0
    1348:	a0 e1       	ldi	r26, 0x10	; 16
    134a:	b0 e2       	ldi	r27, 0x20	; 32
    134c:	c0 e0       	ldi	r28, 0x00	; 0
    134e:	f9 01       	movw	r30, r18
    1350:	ee 0f       	add	r30, r30
    1352:	ff 1f       	adc	r31, r31
    1354:	2e 0f       	add	r18, r30
    1356:	3f 1f       	adc	r19, r31
    1358:	f9 01       	movw	r30, r18
    135a:	e8 51       	subi	r30, 0x18	; 24
    135c:	fe 4d       	sbci	r31, 0xDE	; 222
    135e:	a0 83       	st	Z, r26
    1360:	b1 83       	std	Z+1, r27	; 0x01
    1362:	c2 83       	std	Z+2, r28	; 0x02
void play_lights_easter_egg(uint16_t dingle_pos, uint8_t buttons)
{
		uint8_t i = 0;
		uint8_t half = GRUMBO_LED_COUNT / 2;		
		
		for (;i<LED_COUNT; i++)
    1364:	9f 5f       	subi	r25, 0xFF	; 255
    1366:	98 33       	cpi	r25, 0x38	; 56
    1368:	68 f3       	brcs	.-38     	; 0x1344 <play_lights_easter_egg+0xc>
		{
			leds[i] = (ws2812drv_led_t){.r = MAX_BRIGHTNESS / 2, .g = MAX_BRIGHTNESS / 4, .b = 0};			
		}
		
		if (!(offset % GRUMBO_LED_COUNT))
    136a:	20 91 a9 21 	lds	r18, 0x21A9	; 0x8021a9 <offset>
    136e:	8b ea       	ldi	r24, 0xAB	; 171
    1370:	28 9f       	mul	r18, r24
    1372:	81 2d       	mov	r24, r1
    1374:	11 24       	eor	r1, r1
    1376:	82 95       	swap	r24
    1378:	86 95       	lsr	r24
    137a:	87 70       	andi	r24, 0x07	; 7
    137c:	92 2f       	mov	r25, r18
    137e:	30 e3       	ldi	r19, 0x30	; 48
    1380:	83 9f       	mul	r24, r19
    1382:	90 19       	sub	r25, r0
    1384:	11 24       	eor	r1, r1
    1386:	91 11       	cpse	r25, r1
    1388:	0a c0       	rjmp	.+20     	; 0x139e <play_lights_easter_egg+0x66>
		{
			leds[0] = game_colors[LED_MAX_ON];
    138a:	e8 ee       	ldi	r30, 0xE8	; 232
    138c:	f1 e2       	ldi	r31, 0x21	; 33
    138e:	80 e1       	ldi	r24, 0x10	; 16
    1390:	80 83       	st	Z, r24
    1392:	81 83       	std	Z+1, r24	; 0x01
    1394:	82 83       	std	Z+2, r24	; 0x02
    1396:	80 83       	st	Z, r24
    1398:	81 83       	std	Z+1, r24	; 0x01
    139a:	82 83       	std	Z+2, r24	; 0x02
    139c:	39 c0       	rjmp	.+114    	; 0x1410 <play_lights_easter_egg+0xd8>
		}
		else if (!(offset % half))
    139e:	8b ea       	ldi	r24, 0xAB	; 171
    13a0:	28 9f       	mul	r18, r24
    13a2:	81 2d       	mov	r24, r1
    13a4:	11 24       	eor	r1, r1
    13a6:	82 95       	swap	r24
    13a8:	8f 70       	andi	r24, 0x0F	; 15
    13aa:	92 2f       	mov	r25, r18
    13ac:	38 e1       	ldi	r19, 0x18	; 24
    13ae:	83 9f       	mul	r24, r19
    13b0:	90 19       	sub	r25, r0
    13b2:	11 24       	eor	r1, r1
    13b4:	91 11       	cpse	r25, r1
    13b6:	0a c0       	rjmp	.+20     	; 0x13cc <play_lights_easter_egg+0x94>
		{
			//bottom center
			leds[half] = game_colors[LED_MAX_ON];
    13b8:	e0 e3       	ldi	r30, 0x30	; 48
    13ba:	f2 e2       	ldi	r31, 0x22	; 34
    13bc:	80 e1       	ldi	r24, 0x10	; 16
    13be:	80 83       	st	Z, r24
    13c0:	81 83       	std	Z+1, r24	; 0x01
    13c2:	82 83       	std	Z+2, r24	; 0x02
    13c4:	80 83       	st	Z, r24
    13c6:	81 83       	std	Z+1, r24	; 0x01
    13c8:	82 83       	std	Z+2, r24	; 0x02
    13ca:	22 c0       	rjmp	.+68     	; 0x1410 <play_lights_easter_egg+0xd8>
		}		
		else
		{
			leds[half - (offset % half)] = game_colors[LED_MAX_ON];
    13cc:	89 2f       	mov	r24, r25
    13ce:	90 e0       	ldi	r25, 0x00	; 0
    13d0:	68 e1       	ldi	r22, 0x18	; 24
    13d2:	70 e0       	ldi	r23, 0x00	; 0
    13d4:	68 1b       	sub	r22, r24
    13d6:	79 0b       	sbc	r23, r25
    13d8:	fb 01       	movw	r30, r22
    13da:	ee 0f       	add	r30, r30
    13dc:	ff 1f       	adc	r31, r31
    13de:	e6 0f       	add	r30, r22
    13e0:	f7 1f       	adc	r31, r23
    13e2:	e8 51       	subi	r30, 0x18	; 24
    13e4:	fe 4d       	sbci	r31, 0xDE	; 222
    13e6:	30 e1       	ldi	r19, 0x10	; 16
    13e8:	30 83       	st	Z, r19
    13ea:	31 83       	std	Z+1, r19	; 0x01
    13ec:	32 83       	std	Z+2, r19	; 0x02
    13ee:	30 83       	st	Z, r19
    13f0:	31 83       	std	Z+1, r19	; 0x01
    13f2:	32 83       	std	Z+2, r19	; 0x02
			leds[half + (offset % half)] = game_colors[LED_MAX_ON];
    13f4:	48 96       	adiw	r24, 0x18	; 24
    13f6:	fc 01       	movw	r30, r24
    13f8:	ee 0f       	add	r30, r30
    13fa:	ff 1f       	adc	r31, r31
    13fc:	e8 0f       	add	r30, r24
    13fe:	f9 1f       	adc	r31, r25
    1400:	e8 51       	subi	r30, 0x18	; 24
    1402:	fe 4d       	sbci	r31, 0xDE	; 222
    1404:	30 83       	st	Z, r19
    1406:	31 83       	std	Z+1, r19	; 0x01
    1408:	32 83       	std	Z+2, r19	; 0x02
    140a:	30 83       	st	Z, r19
    140c:	31 83       	std	Z+1, r19	; 0x01
    140e:	32 83       	std	Z+2, r19	; 0x02
		}
		
		offset++;
    1410:	2f 5f       	subi	r18, 0xFF	; 255
    1412:	20 93 a9 21 	sts	0x21A9, r18	; 0x8021a9 <offset>
		
		overlay_dingle_pos(dingle_pos);
    1416:	ca 01       	movw	r24, r20
    1418:	0e 94 0e 06 	call	0xc1c	; 0xc1c <overlay_dingle_pos>
		play_lights_overlay_note_button_leds(buttons);
    141c:	8d 2f       	mov	r24, r29
    141e:	0e 94 7d 05 	call	0xafa	; 0xafa <play_lights_overlay_note_button_leds>
		ws2812drv_start_transfer(leds, LED_COUNT);
    1422:	68 e3       	ldi	r22, 0x38	; 56
    1424:	70 e0       	ldi	r23, 0x00	; 0
    1426:	88 ee       	ldi	r24, 0xE8	; 232
    1428:	91 e2       	ldi	r25, 0x21	; 33
    142a:	0e 94 5a 12 	call	0x24b4	; 0x24b4 <ws2812drv_start_transfer>
}
    142e:	df 91       	pop	r29
    1430:	cf 91       	pop	r28
    1432:	08 95       	ret

00001434 <play_lights_easter_egg_intro>:

void play_lights_easter_egg_intro()
{
    1434:	cf 92       	push	r12
    1436:	df 92       	push	r13
    1438:	ef 92       	push	r14
    143a:	cf 93       	push	r28
    143c:	df 93       	push	r29
	uint8_t i = 0;
    143e:	20 e0       	ldi	r18, 0x00	; 0
	
	for (;i<GRUMBO_LED_COUNT; i++)
    1440:	13 c0       	rjmp	.+38     	; 0x1468 <play_lights_easter_egg_intro+0x34>
	{
		leds[i] = (ws2812drv_led_t){.r = 0, .g = MAX_BRIGHTNESS, .b = 0};
    1442:	82 2f       	mov	r24, r18
    1444:	90 e0       	ldi	r25, 0x00	; 0
    1446:	68 94       	set
    1448:	cc 24       	eor	r12, r12
    144a:	c6 f8       	bld	r12, 6
    144c:	d1 2c       	mov	r13, r1
    144e:	e1 2c       	mov	r14, r1
    1450:	fc 01       	movw	r30, r24
    1452:	ee 0f       	add	r30, r30
    1454:	ff 1f       	adc	r31, r31
    1456:	8e 0f       	add	r24, r30
    1458:	9f 1f       	adc	r25, r31
    145a:	fc 01       	movw	r30, r24
    145c:	e8 51       	subi	r30, 0x18	; 24
    145e:	fe 4d       	sbci	r31, 0xDE	; 222
    1460:	c0 82       	st	Z, r12
    1462:	d1 82       	std	Z+1, r13	; 0x01
    1464:	e2 82       	std	Z+2, r14	; 0x02

void play_lights_easter_egg_intro()
{
	uint8_t i = 0;
	
	for (;i<GRUMBO_LED_COUNT; i++)
    1466:	2f 5f       	subi	r18, 0xFF	; 255
    1468:	20 33       	cpi	r18, 0x30	; 48
    146a:	58 f3       	brcs	.-42     	; 0x1442 <play_lights_easter_egg_intro+0xe>
    146c:	24 c0       	rjmp	.+72     	; 0x14b6 <play_lights_easter_egg_intro+0x82>
		
	}

	for (;i < LED_COUNT; i++)
	{
		if (i%2)
    146e:	20 ff       	sbrs	r18, 0
    1470:	11 c0       	rjmp	.+34     	; 0x1494 <play_lights_easter_egg_intro+0x60>
		{
			leds[i] = (ws2812drv_led_t){.r = MAX_BRIGHTNESS, .g = 0, .b = MAX_BRIGHTNESS};
    1472:	82 2f       	mov	r24, r18
    1474:	90 e0       	ldi	r25, 0x00	; 0
    1476:	a0 e0       	ldi	r26, 0x00	; 0
    1478:	b0 e4       	ldi	r27, 0x40	; 64
    147a:	c0 e4       	ldi	r28, 0x40	; 64
    147c:	fc 01       	movw	r30, r24
    147e:	ee 0f       	add	r30, r30
    1480:	ff 1f       	adc	r31, r31
    1482:	8e 0f       	add	r24, r30
    1484:	9f 1f       	adc	r25, r31
    1486:	fc 01       	movw	r30, r24
    1488:	e8 51       	subi	r30, 0x18	; 24
    148a:	fe 4d       	sbci	r31, 0xDE	; 222
    148c:	a0 83       	st	Z, r26
    148e:	b1 83       	std	Z+1, r27	; 0x01
    1490:	c2 83       	std	Z+2, r28	; 0x02
    1492:	10 c0       	rjmp	.+32     	; 0x14b4 <play_lights_easter_egg_intro+0x80>
		}
		else
		{
			leds[i] = (ws2812drv_led_t){.r = MAX_BRIGHTNESS, .g = MAX_BRIGHTNESS, .b = MAX_BRIGHTNESS};
    1494:	82 2f       	mov	r24, r18
    1496:	90 e0       	ldi	r25, 0x00	; 0
    1498:	40 e4       	ldi	r20, 0x40	; 64
    149a:	50 e4       	ldi	r21, 0x40	; 64
    149c:	60 e4       	ldi	r22, 0x40	; 64
    149e:	fc 01       	movw	r30, r24
    14a0:	ee 0f       	add	r30, r30
    14a2:	ff 1f       	adc	r31, r31
    14a4:	8e 0f       	add	r24, r30
    14a6:	9f 1f       	adc	r25, r31
    14a8:	fc 01       	movw	r30, r24
    14aa:	e8 51       	subi	r30, 0x18	; 24
    14ac:	fe 4d       	sbci	r31, 0xDE	; 222
    14ae:	40 83       	st	Z, r20
    14b0:	51 83       	std	Z+1, r21	; 0x01
    14b2:	62 83       	std	Z+2, r22	; 0x02
	{
		leds[i] = (ws2812drv_led_t){.r = 0, .g = MAX_BRIGHTNESS, .b = 0};
		
	}

	for (;i < LED_COUNT; i++)
    14b4:	2f 5f       	subi	r18, 0xFF	; 255
    14b6:	28 33       	cpi	r18, 0x38	; 56
    14b8:	d0 f2       	brcs	.-76     	; 0x146e <play_lights_easter_egg_intro+0x3a>
		{
			leds[i] = (ws2812drv_led_t){.r = MAX_BRIGHTNESS, .g = MAX_BRIGHTNESS, .b = MAX_BRIGHTNESS};
		}
	}

	offset += 3;
    14ba:	20 91 a9 21 	lds	r18, 0x21A9	; 0x8021a9 <offset>
    14be:	2d 5f       	subi	r18, 0xFD	; 253
    14c0:	20 93 a9 21 	sts	0x21A9, r18	; 0x8021a9 <offset>

	leds[offset % GRUMBO_LED_COUNT] =(ws2812drv_led_t){.r = MAX_BRIGHTNESS, .g = MAX_BRIGHTNESS, .b = 0};
    14c4:	8b ea       	ldi	r24, 0xAB	; 171
    14c6:	28 9f       	mul	r18, r24
    14c8:	81 2d       	mov	r24, r1
    14ca:	11 24       	eor	r1, r1
    14cc:	82 95       	swap	r24
    14ce:	86 95       	lsr	r24
    14d0:	87 70       	andi	r24, 0x07	; 7
    14d2:	42 2f       	mov	r20, r18
    14d4:	90 e3       	ldi	r25, 0x30	; 48
    14d6:	89 9f       	mul	r24, r25
    14d8:	40 19       	sub	r20, r0
    14da:	11 24       	eor	r1, r1
    14dc:	50 e0       	ldi	r21, 0x00	; 0
    14de:	80 e4       	ldi	r24, 0x40	; 64
    14e0:	90 e0       	ldi	r25, 0x00	; 0
    14e2:	a0 e0       	ldi	r26, 0x00	; 0
    14e4:	90 e4       	ldi	r25, 0x40	; 64
    14e6:	a0 e0       	ldi	r26, 0x00	; 0
    14e8:	fa 01       	movw	r30, r20
    14ea:	ee 0f       	add	r30, r30
    14ec:	ff 1f       	adc	r31, r31
    14ee:	4e 0f       	add	r20, r30
    14f0:	5f 1f       	adc	r21, r31
    14f2:	fa 01       	movw	r30, r20
    14f4:	e8 51       	subi	r30, 0x18	; 24
    14f6:	fe 4d       	sbci	r31, 0xDE	; 222
    14f8:	80 83       	st	Z, r24
    14fa:	91 83       	std	Z+1, r25	; 0x01
    14fc:	a2 83       	std	Z+2, r26	; 0x02
	leds[(offset + 1) % GRUMBO_LED_COUNT] =(ws2812drv_led_t){.r = MAX_BRIGHTNESS, .g = MAX_BRIGHTNESS, .b = 0};
    14fe:	30 e0       	ldi	r19, 0x00	; 0
    1500:	c9 01       	movw	r24, r18
    1502:	01 96       	adiw	r24, 0x01	; 1
    1504:	c0 e3       	ldi	r28, 0x30	; 48
    1506:	d0 e0       	ldi	r29, 0x00	; 0
    1508:	be 01       	movw	r22, r28
    150a:	0e 94 68 12 	call	0x24d0	; 0x24d0 <__divmodhi4>
    150e:	68 94       	set
    1510:	cc 24       	eor	r12, r12
    1512:	c6 f8       	bld	r12, 6
    1514:	d1 2c       	mov	r13, r1
    1516:	e1 2c       	mov	r14, r1
    1518:	68 94       	set
    151a:	dd 24       	eor	r13, r13
    151c:	d6 f8       	bld	r13, 6
    151e:	e1 2c       	mov	r14, r1
    1520:	fc 01       	movw	r30, r24
    1522:	ee 0f       	add	r30, r30
    1524:	ff 1f       	adc	r31, r31
    1526:	8e 0f       	add	r24, r30
    1528:	9f 1f       	adc	r25, r31
    152a:	fc 01       	movw	r30, r24
    152c:	e8 51       	subi	r30, 0x18	; 24
    152e:	fe 4d       	sbci	r31, 0xDE	; 222
    1530:	c0 82       	st	Z, r12
    1532:	d1 82       	std	Z+1, r13	; 0x01
    1534:	e2 82       	std	Z+2, r14	; 0x02
	leds[(offset + 2) % GRUMBO_LED_COUNT] =(ws2812drv_led_t){.r = MAX_BRIGHTNESS, .g = MAX_BRIGHTNESS, .b = 0};	
    1536:	c9 01       	movw	r24, r18
    1538:	02 96       	adiw	r24, 0x02	; 2
    153a:	be 01       	movw	r22, r28
    153c:	0e 94 68 12 	call	0x24d0	; 0x24d0 <__divmodhi4>
    1540:	20 e4       	ldi	r18, 0x40	; 64
    1542:	30 e0       	ldi	r19, 0x00	; 0
    1544:	40 e0       	ldi	r20, 0x00	; 0
    1546:	30 e4       	ldi	r19, 0x40	; 64
    1548:	40 e0       	ldi	r20, 0x00	; 0
    154a:	fc 01       	movw	r30, r24
    154c:	ee 0f       	add	r30, r30
    154e:	ff 1f       	adc	r31, r31
    1550:	8e 0f       	add	r24, r30
    1552:	9f 1f       	adc	r25, r31
    1554:	fc 01       	movw	r30, r24
    1556:	e8 51       	subi	r30, 0x18	; 24
    1558:	fe 4d       	sbci	r31, 0xDE	; 222
    155a:	20 83       	st	Z, r18
    155c:	31 83       	std	Z+1, r19	; 0x01
    155e:	42 83       	std	Z+2, r20	; 0x02
		
	ws2812drv_start_transfer(leds, LED_COUNT);
    1560:	68 e3       	ldi	r22, 0x38	; 56
    1562:	70 e0       	ldi	r23, 0x00	; 0
    1564:	88 ee       	ldi	r24, 0xE8	; 232
    1566:	91 e2       	ldi	r25, 0x21	; 33
    1568:	0e 94 5a 12 	call	0x24b4	; 0x24b4 <ws2812drv_start_transfer>
    156c:	df 91       	pop	r29
    156e:	cf 91       	pop	r28
    1570:	ef 90       	pop	r14
    1572:	df 90       	pop	r13
    1574:	cf 90       	pop	r12
    1576:	08 95       	ret

00001578 <clk_init>:
	
}

void clk_init()
{
	CCP = CCP_IOREG_gc;
    1578:	88 ed       	ldi	r24, 0xD8	; 216
    157a:	84 bf       	out	0x34, r24	; 52
	OSC_CTRL = OSC_RC32MEN_bm;
    157c:	82 e0       	ldi	r24, 0x02	; 2
    157e:	80 93 50 00 	sts	0x0050, r24	; 0x800050 <__TEXT_REGION_LENGTH__+0x7fb050>
	
	while(!(OSC_STATUS & OSC_RC32MRDY_bm)){};
    1582:	80 91 51 00 	lds	r24, 0x0051	; 0x800051 <__TEXT_REGION_LENGTH__+0x7fb051>
    1586:	81 ff       	sbrs	r24, 1
    1588:	fc cf       	rjmp	.-8      	; 0x1582 <clk_init+0xa>
	
	CCP = CCP_IOREG_gc;
    158a:	88 ed       	ldi	r24, 0xD8	; 216
    158c:	84 bf       	out	0x34, r24	; 52
	CLK_CTRL = CLK_SCLKSEL_RC32M_gc;
    158e:	91 e0       	ldi	r25, 0x01	; 1
    1590:	90 93 40 00 	sts	0x0040, r25	; 0x800040 <__TEXT_REGION_LENGTH__+0x7fb040>
	
	CCP = CCP_IOREG_gc;
    1594:	84 bf       	out	0x34, r24	; 52
	CLK_PSCTRL = 0;
    1596:	10 92 41 00 	sts	0x0041, r1	; 0x800041 <__TEXT_REGION_LENGTH__+0x7fb041>
    159a:	08 95       	ret

0000159c <interrupt_init>:
	
}

void interrupt_init()
{
	PMIC_CTRL = PMIC_HILVLEN_bm | PMIC_MEDLVLEN_bm | PMIC_LOLVLEN_bm;
    159c:	87 e0       	ldi	r24, 0x07	; 7
    159e:	80 93 a2 00 	sts	0x00A2, r24	; 0x8000a2 <__TEXT_REGION_LENGTH__+0x7fb0a2>
    15a2:	08 95       	ret

000015a4 <io_init>:

void io_init()
{
	
	//Mode change pin
	PORTA.DIRCLR = PIN0_bm;
    15a4:	e0 e0       	ldi	r30, 0x00	; 0
    15a6:	f6 e0       	ldi	r31, 0x06	; 6
    15a8:	81 e0       	ldi	r24, 0x01	; 1
    15aa:	82 83       	std	Z+2, r24	; 0x02
	PORTA.PIN0CTRL = PORT_OPC_PULLUP_gc;
    15ac:	88 e1       	ldi	r24, 0x18	; 24
    15ae:	80 8b       	std	Z+16, r24	; 0x10

	//Mode indication lights (all off by default)
	PORTD.DIRSET = PIN5_bm | PIN6_bm | PIN7_bm;
    15b0:	a0 e6       	ldi	r26, 0x60	; 96
    15b2:	b6 e0       	ldi	r27, 0x06	; 6
    15b4:	80 ee       	ldi	r24, 0xE0	; 224
    15b6:	11 96       	adiw	r26, 0x01	; 1
    15b8:	8c 93       	st	X, r24
    15ba:	11 97       	sbiw	r26, 0x01	; 1
	PORTD.OUTCLR = PIN5_bm | PIN6_bm | PIN7_bm;
    15bc:	16 96       	adiw	r26, 0x06	; 6
    15be:	8c 93       	st	X, r24
	
	//Hall sensor enable (off by default)
	PORTC.DIRSET = PIN7_bm;
    15c0:	a0 e4       	ldi	r26, 0x40	; 64
    15c2:	b6 e0       	ldi	r27, 0x06	; 6
    15c4:	80 e8       	ldi	r24, 0x80	; 128
    15c6:	11 96       	adiw	r26, 0x01	; 1
    15c8:	8c 93       	st	X, r24
    15ca:	11 97       	sbiw	r26, 0x01	; 1
	PORTC.OUTCLR = PIN7_bm;
    15cc:	16 96       	adiw	r26, 0x06	; 6
    15ce:	8c 93       	st	X, r24
	
	//DACA0 out
	PORTA.DIRSET = PIN2_bm;
    15d0:	84 e0       	ldi	r24, 0x04	; 4
    15d2:	81 83       	std	Z+1, r24	; 0x01
    15d4:	08 95       	ret

000015d6 <note_buttons_init>:
}

void note_buttons_init()
{
	//Turn on hall sensors
	PORTC.OUTSET = PIN7_bm;
    15d6:	80 e8       	ldi	r24, 0x80	; 128
    15d8:	80 93 45 06 	sts	0x0645, r24	; 0x800645 <__TEXT_REGION_LENGTH__+0x7fb645>
	
	//note button
	PORTA.DIRCLR = PIN4_bm | PIN5_bm | PIN6_bm | PIN7_bm;
    15dc:	e0 e0       	ldi	r30, 0x00	; 0
    15de:	f6 e0       	ldi	r31, 0x06	; 6
    15e0:	80 ef       	ldi	r24, 0xF0	; 240
    15e2:	82 83       	std	Z+2, r24	; 0x02
	PORTA.PIN4CTRL = PORT_OPC_PULLUP_gc;
    15e4:	88 e1       	ldi	r24, 0x18	; 24
    15e6:	84 8b       	std	Z+20, r24	; 0x14
	PORTA.PIN5CTRL = PORT_OPC_PULLUP_gc;
    15e8:	85 8b       	std	Z+21, r24	; 0x15
	PORTA.PIN6CTRL = PORT_OPC_PULLUP_gc;
    15ea:	86 8b       	std	Z+22, r24	; 0x16
	PORTA.PIN7CTRL = PORT_OPC_PULLUP_gc;
    15ec:	87 8b       	std	Z+23, r24	; 0x17
    15ee:	08 95       	ret

000015f0 <dingle_input_init>:
}

void dingle_input_init()
{
	expander_init();
    15f0:	0e 94 33 05 	call	0xa66	; 0xa66 <expander_init>
    15f4:	08 95       	ret

000015f6 <song_out_init>:
}

void song_out_init()
{
	//TCC5 and TCD5 out 
	PORTC.DIRSET = PIN4_bm; 	
    15f6:	80 e1       	ldi	r24, 0x10	; 16
    15f8:	80 93 41 06 	sts	0x0641, r24	; 0x800641 <__TEXT_REGION_LENGTH__+0x7fb641>
	PORTD.DIRSET = PIN4_bm;
    15fc:	80 93 61 06 	sts	0x0661, r24	; 0x800661 <__TEXT_REGION_LENGTH__+0x7fb661>
	//Force dac0 output high 
	PORTA.OUTSET = PIN2_bm;
    1600:	84 e0       	ldi	r24, 0x04	; 4
    1602:	80 93 05 06 	sts	0x0605, r24	; 0x800605 <__TEXT_REGION_LENGTH__+0x7fb605>
    1606:	08 95       	ret

00001608 <start_up>:
}

void start_up(uint8_t mode)
{
    1608:	cf 93       	push	r28
    160a:	df 93       	push	r29
    160c:	cd b7       	in	r28, 0x3d	; 61
    160e:	de b7       	in	r29, 0x3e	; 62
    1610:	a2 97       	sbiw	r28, 0x22	; 34
    1612:	cd bf       	out	0x3d, r28	; 61
    1614:	de bf       	out	0x3e, r29	; 62
	SongInitParams params;
	
	switch(mode)
    1616:	83 30       	cpi	r24, 0x03	; 3
    1618:	81 f1       	breq	.+96     	; 0x167a <start_up+0x72>
    161a:	20 f4       	brcc	.+8      	; 0x1624 <start_up+0x1c>
    161c:	81 30       	cpi	r24, 0x01	; 1
    161e:	91 f0       	breq	.+36     	; 0x1644 <start_up+0x3c>
    1620:	60 f0       	brcs	.+24     	; 0x163a <start_up+0x32>
    1622:	1c c0       	rjmp	.+56     	; 0x165c <start_up+0x54>
    1624:	85 30       	cpi	r24, 0x05	; 5
    1626:	09 f4       	brne	.+2      	; 0x162a <start_up+0x22>
    1628:	99 c0       	rjmp	.+306    	; 0x175c <start_up+0x154>
    162a:	b0 f1       	brcs	.+108    	; 0x1698 <start_up+0x90>
    162c:	86 30       	cpi	r24, 0x06	; 6
    162e:	09 f4       	brne	.+2      	; 0x1632 <start_up+0x2a>
    1630:	f8 c0       	rjmp	.+496    	; 0x1822 <start_up+0x21a>
    1632:	8f 3e       	cpi	r24, 0xEF	; 239
    1634:	09 f4       	brne	.+2      	; 0x1638 <start_up+0x30>
    1636:	03 c1       	rjmp	.+518    	; 0x183e <start_up+0x236>
    1638:	5f c1       	rjmp	.+702    	; 0x18f8 <start_up+0x2f0>
	{
		case STANDBY_sm:
			sys_timer_D5_init();
    163a:	0e 94 18 0e 	call	0x1c30	; 0x1c30 <sys_timer_D5_init>
			ws2812drv_init();
    163e:	0e 94 0a 12 	call	0x2414	; 0x2414 <ws2812drv_init>
			break;
    1642:	5a c1       	rjmp	.+692    	; 0x18f8 <start_up+0x2f0>
		case FREEPLAY_sm:
			//TCC5 out
			PORTC.DIRSET = PIN4_bm;
    1644:	80 e1       	ldi	r24, 0x10	; 16
    1646:	80 93 41 06 	sts	0x0641, r24	; 0x800641 <__TEXT_REGION_LENGTH__+0x7fb641>
			note_buttons_init();
    164a:	0e 94 eb 0a 	call	0x15d6	; 0x15d6 <note_buttons_init>
			note_player_init();
    164e:	0e 94 7a 0e 	call	0x1cf4	; 0x1cf4 <note_player_init>
			dingle_input_init();
    1652:	0e 94 f8 0a 	call	0x15f0	; 0x15f0 <dingle_input_init>
			ws2812drv_init();
    1656:	0e 94 0a 12 	call	0x2414	; 0x2414 <ws2812drv_init>
			
			break;
    165a:	4e c1       	rjmp	.+668    	; 0x18f8 <start_up+0x2f0>
		case GAME_EASY_sm:
			//TCC5 out
			PORTC.DIRSET = PIN4_bm;
    165c:	80 e1       	ldi	r24, 0x10	; 16
    165e:	80 93 41 06 	sts	0x0641, r24	; 0x800641 <__TEXT_REGION_LENGTH__+0x7fb641>
			note_buttons_init();
    1662:	0e 94 eb 0a 	call	0x15d6	; 0x15d6 <note_buttons_init>
			note_player_init();
    1666:	0e 94 7a 0e 	call	0x1cf4	; 0x1cf4 <note_player_init>
			dingle_input_init();
    166a:	0e 94 f8 0a 	call	0x15f0	; 0x15f0 <dingle_input_init>
			games_init(easy);
    166e:	80 e0       	ldi	r24, 0x00	; 0
    1670:	0e 94 83 02 	call	0x506	; 0x506 <games_init>
			ws2812drv_init();
    1674:	0e 94 0a 12 	call	0x2414	; 0x2414 <ws2812drv_init>
			
			break;
    1678:	3f c1       	rjmp	.+638    	; 0x18f8 <start_up+0x2f0>
		case GAME_HARD_sm:
			//TCC5 out
			PORTC.DIRSET = PIN4_bm;		
    167a:	80 e1       	ldi	r24, 0x10	; 16
    167c:	80 93 41 06 	sts	0x0641, r24	; 0x800641 <__TEXT_REGION_LENGTH__+0x7fb641>
			note_buttons_init();
    1680:	0e 94 eb 0a 	call	0x15d6	; 0x15d6 <note_buttons_init>
			note_player_init();
    1684:	0e 94 7a 0e 	call	0x1cf4	; 0x1cf4 <note_player_init>
			dingle_input_init();
    1688:	0e 94 f8 0a 	call	0x15f0	; 0x15f0 <dingle_input_init>
			games_init(hard);
    168c:	81 e0       	ldi	r24, 0x01	; 1
    168e:	0e 94 83 02 	call	0x506	; 0x506 <games_init>
			ws2812drv_init();
    1692:	0e 94 0a 12 	call	0x2414	; 0x2414 <ws2812drv_init>
			
			break;
    1696:	30 c1       	rjmp	.+608    	; 0x18f8 <start_up+0x2f0>
		case NYAN_sm:
			
			song_out_init();
    1698:	0e 94 fb 0a 	call	0x15f6	; 0x15f6 <song_out_init>
			ws2812drv_init();
    169c:	0e 94 0a 12 	call	0x2414	; 0x2414 <ws2812drv_init>
			params.bmp_period = nyanBPMPeriod;
    16a0:	8b ed       	ldi	r24, 0xDB	; 219
    16a2:	95 e3       	ldi	r25, 0x35	; 53
    16a4:	89 a3       	std	Y+33, r24	; 0x21
    16a6:	9a a3       	std	Y+34, r25	; 0x22
			params.ch0.intro.track_data = nyanIntroTreble;
    16a8:	8c e5       	ldi	r24, 0x5C	; 92
    16aa:	93 e0       	ldi	r25, 0x03	; 3
    16ac:	89 83       	std	Y+1, r24	; 0x01
    16ae:	9a 83       	std	Y+2, r25	; 0x02
			params.ch0.intro.track_size = sizeof(nyanIntroTreble);
    16b0:	8f e1       	ldi	r24, 0x1F	; 31
    16b2:	90 e0       	ldi	r25, 0x00	; 0
    16b4:	8b 83       	std	Y+3, r24	; 0x03
    16b6:	9c 83       	std	Y+4, r25	; 0x04
			params.ch0.intro.extension_data = nyanIntroExtTreble;
    16b8:	88 e5       	ldi	r24, 0x58	; 88
    16ba:	93 e0       	ldi	r25, 0x03	; 3
    16bc:	8d 83       	std	Y+5, r24	; 0x05
    16be:	9e 83       	std	Y+6, r25	; 0x06
			params.ch0.intro.extension_size = sizeof(nyanIntroExtTreble);
    16c0:	84 e0       	ldi	r24, 0x04	; 4
    16c2:	90 e0       	ldi	r25, 0x00	; 0
    16c4:	8f 83       	std	Y+7, r24	; 0x07
    16c6:	98 87       	std	Y+8, r25	; 0x08
			params.ch0.main.track_data = nyanMainTreble;
    16c8:	84 e8       	ldi	r24, 0x84	; 132
    16ca:	92 e0       	ldi	r25, 0x02	; 2
    16cc:	89 87       	std	Y+9, r24	; 0x09
    16ce:	9a 87       	std	Y+10, r25	; 0x0a
			params.ch0.main.track_size = sizeof(nyanMainTreble);
    16d0:	84 ed       	ldi	r24, 0xD4	; 212
    16d2:	90 e0       	ldi	r25, 0x00	; 0
    16d4:	8b 87       	std	Y+11, r24	; 0x0b
    16d6:	9c 87       	std	Y+12, r25	; 0x0c
			params.ch0.main.extension_data = nyanMainExtTreble;
    16d8:	89 e6       	ldi	r24, 0x69	; 105
    16da:	92 e0       	ldi	r25, 0x02	; 2
    16dc:	8d 87       	std	Y+13, r24	; 0x0d
    16de:	9e 87       	std	Y+14, r25	; 0x0e
			params.ch0.main.extension_size = sizeof(nyanMainExtTreble);
    16e0:	8b e1       	ldi	r24, 0x1B	; 27
    16e2:	90 e0       	ldi	r25, 0x00	; 0
    16e4:	8f 87       	std	Y+15, r24	; 0x0f
    16e6:	98 8b       	std	Y+16, r25	; 0x10
			params.ch1.intro.track_data = nyanIntroBass;
    16e8:	87 e6       	ldi	r24, 0x67	; 103
    16ea:	92 e0       	ldi	r25, 0x02	; 2
    16ec:	89 8b       	std	Y+17, r24	; 0x11
    16ee:	9a 8b       	std	Y+18, r25	; 0x12
			params.ch1.intro.track_size = sizeof(nyanIntroBass);
    16f0:	82 e0       	ldi	r24, 0x02	; 2
    16f2:	90 e0       	ldi	r25, 0x00	; 0
    16f4:	8b 8b       	std	Y+19, r24	; 0x13
    16f6:	9c 8b       	std	Y+20, r25	; 0x14
			params.ch1.intro.extension_data = nyanIntroExtBass;
    16f8:	86 e6       	ldi	r24, 0x66	; 102
    16fa:	92 e0       	ldi	r25, 0x02	; 2
    16fc:	8d 8b       	std	Y+21, r24	; 0x15
    16fe:	9e 8b       	std	Y+22, r25	; 0x16
			params.ch1.intro.extension_size = sizeof(nyanIntroExtBass);			
    1700:	81 e0       	ldi	r24, 0x01	; 1
    1702:	90 e0       	ldi	r25, 0x00	; 0
    1704:	8f 8b       	std	Y+23, r24	; 0x17
    1706:	98 8f       	std	Y+24, r25	; 0x18
			params.ch1.main.track_data = nyanMainBass;
    1708:	85 e5       	ldi	r24, 0x55	; 85
    170a:	92 e0       	ldi	r25, 0x02	; 2
    170c:	89 8f       	std	Y+25, r24	; 0x19
    170e:	9a 8f       	std	Y+26, r25	; 0x1a
			params.ch1.main.track_size = sizeof(nyanMainBass);
    1710:	81 e1       	ldi	r24, 0x11	; 17
    1712:	90 e0       	ldi	r25, 0x00	; 0
    1714:	8b 8f       	std	Y+27, r24	; 0x1b
    1716:	9c 8f       	std	Y+28, r25	; 0x1c
			params.ch1.main.extension_data = nyanMainExtBass;
    1718:	82 e5       	ldi	r24, 0x52	; 82
    171a:	92 e0       	ldi	r25, 0x02	; 2
    171c:	8d 8f       	std	Y+29, r24	; 0x1d
    171e:	9e 8f       	std	Y+30, r25	; 0x1e
			params.ch1.main.extension_size = sizeof(nyanMainExtBass);
    1720:	83 e0       	ldi	r24, 0x03	; 3
    1722:	90 e0       	ldi	r25, 0x00	; 0
    1724:	8f 8f       	std	Y+31, r24	; 0x1f
    1726:	98 a3       	std	Y+32, r25	; 0x20
			
			song_player_init(params, play_lights_nyan);
    1728:	81 ef       	ldi	r24, 0xF1	; 241
    172a:	96 e0       	ldi	r25, 0x06	; 6
    172c:	9f 93       	push	r25
    172e:	8f 93       	push	r24
    1730:	8d b7       	in	r24, 0x3d	; 61
    1732:	9e b7       	in	r25, 0x3e	; 62
    1734:	82 97       	sbiw	r24, 0x22	; 34
    1736:	8d bf       	out	0x3d, r24	; 61
    1738:	9e bf       	out	0x3e, r25	; 62
    173a:	ad b7       	in	r26, 0x3d	; 61
    173c:	be b7       	in	r27, 0x3e	; 62
    173e:	11 96       	adiw	r26, 0x01	; 1
    1740:	82 e2       	ldi	r24, 0x22	; 34
    1742:	fe 01       	movw	r30, r28
    1744:	31 96       	adiw	r30, 0x01	; 1
    1746:	01 90       	ld	r0, Z+
    1748:	0d 92       	st	X+, r0
    174a:	8a 95       	dec	r24
    174c:	e1 f7       	brne	.-8      	; 0x1746 <start_up+0x13e>
    174e:	0e 94 21 10 	call	0x2042	; 0x2042 <song_player_init>
			song_start();
    1752:	cd bf       	out	0x3d, r28	; 61
    1754:	de bf       	out	0x3e, r29	; 62
    1756:	0e 94 b4 10 	call	0x2168	; 0x2168 <song_start>
			
			
			break;
    175a:	ce c0       	rjmp	.+412    	; 0x18f8 <start_up+0x2f0>
		case PORTAL_sm:		
			if (get_allow_portal())
    175c:	0e 94 70 11 	call	0x22e0	; 0x22e0 <get_allow_portal>
    1760:	88 23       	and	r24, r24
    1762:	09 f4       	brne	.+2      	; 0x1766 <start_up+0x15e>
    1764:	c9 c0       	rjmp	.+402    	; 0x18f8 <start_up+0x2f0>
			{
				song_out_init();
    1766:	0e 94 fb 0a 	call	0x15f6	; 0x15f6 <song_out_init>
				ws2812drv_init();
    176a:	0e 94 0a 12 	call	0x2414	; 0x2414 <ws2812drv_init>
				params.bmp_period = portalBPMPeriod;
    176e:	89 e0       	ldi	r24, 0x09	; 9
    1770:	9d e3       	ldi	r25, 0x3D	; 61
    1772:	89 a3       	std	Y+33, r24	; 0x21
    1774:	9a a3       	std	Y+34, r25	; 0x22
				params.ch0.intro.track_data = portalIntroTreble;
    1776:	8e e4       	ldi	r24, 0x4E	; 78
    1778:	92 e0       	ldi	r25, 0x02	; 2
    177a:	89 83       	std	Y+1, r24	; 0x01
    177c:	9a 83       	std	Y+2, r25	; 0x02
				params.ch0.intro.track_size = sizeof(portalIntroTreble);
    177e:	84 e0       	ldi	r24, 0x04	; 4
    1780:	90 e0       	ldi	r25, 0x00	; 0
    1782:	8b 83       	std	Y+3, r24	; 0x03
    1784:	9c 83       	std	Y+4, r25	; 0x04
				params.ch0.intro.extension_data = portalIntroExtTreble;
    1786:	8d e4       	ldi	r24, 0x4D	; 77
    1788:	92 e0       	ldi	r25, 0x02	; 2
    178a:	8d 83       	std	Y+5, r24	; 0x05
    178c:	9e 83       	std	Y+6, r25	; 0x06
				params.ch0.intro.extension_size = sizeof(portalIntroExtTreble);
    178e:	81 e0       	ldi	r24, 0x01	; 1
    1790:	90 e0       	ldi	r25, 0x00	; 0
    1792:	8f 83       	std	Y+7, r24	; 0x07
    1794:	98 87       	std	Y+8, r25	; 0x08
				params.ch0.main.track_data = portalMainTreble;
    1796:	20 ec       	ldi	r18, 0xC0	; 192
    1798:	31 e0       	ldi	r19, 0x01	; 1
    179a:	29 87       	std	Y+9, r18	; 0x09
    179c:	3a 87       	std	Y+10, r19	; 0x0a
				params.ch0.main.track_size = sizeof(portalMainTreble);
    179e:	2d e8       	ldi	r18, 0x8D	; 141
    17a0:	30 e0       	ldi	r19, 0x00	; 0
    17a2:	2b 87       	std	Y+11, r18	; 0x0b
    17a4:	3c 87       	std	Y+12, r19	; 0x0c
				params.ch0.main.extension_data = portalMainExtTreble;
    17a6:	2e ea       	ldi	r18, 0xAE	; 174
    17a8:	31 e0       	ldi	r19, 0x01	; 1
    17aa:	2d 87       	std	Y+13, r18	; 0x0d
    17ac:	3e 87       	std	Y+14, r19	; 0x0e
				params.ch0.main.extension_size = sizeof(portalMainExtTreble);
    17ae:	22 e1       	ldi	r18, 0x12	; 18
    17b0:	30 e0       	ldi	r19, 0x00	; 0
    17b2:	2f 87       	std	Y+15, r18	; 0x0f
    17b4:	38 8b       	std	Y+16, r19	; 0x10
				params.ch1.intro.track_data = portalIntroBass;
    17b6:	2d ea       	ldi	r18, 0xAD	; 173
    17b8:	31 e0       	ldi	r19, 0x01	; 1
    17ba:	29 8b       	std	Y+17, r18	; 0x11
    17bc:	3a 8b       	std	Y+18, r19	; 0x12
				params.ch1.intro.track_size = sizeof(portalIntroBass);
    17be:	8b 8b       	std	Y+19, r24	; 0x13
    17c0:	9c 8b       	std	Y+20, r25	; 0x14
				params.ch1.intro.extension_data = portalIntroExtBass;
    17c2:	2c ea       	ldi	r18, 0xAC	; 172
    17c4:	31 e0       	ldi	r19, 0x01	; 1
    17c6:	2d 8b       	std	Y+21, r18	; 0x15
    17c8:	3e 8b       	std	Y+22, r19	; 0x16
				params.ch1.intro.extension_size = sizeof(portalIntroExtBass);
    17ca:	8f 8b       	std	Y+23, r24	; 0x17
    17cc:	98 8f       	std	Y+24, r25	; 0x18
				params.ch1.main.track_data = portalMainBass;
    17ce:	82 e0       	ldi	r24, 0x02	; 2
    17d0:	91 e0       	ldi	r25, 0x01	; 1
    17d2:	89 8f       	std	Y+25, r24	; 0x19
    17d4:	9a 8f       	std	Y+26, r25	; 0x1a
				params.ch1.main.track_size = sizeof(portalMainBass);
    17d6:	8a ea       	ldi	r24, 0xAA	; 170
    17d8:	90 e0       	ldi	r25, 0x00	; 0
    17da:	8b 8f       	std	Y+27, r24	; 0x1b
    17dc:	9c 8f       	std	Y+28, r25	; 0x1c
				params.ch1.main.extension_data = portalMainExtBass;
    17de:	8c ee       	ldi	r24, 0xEC	; 236
    17e0:	90 e0       	ldi	r25, 0x00	; 0
    17e2:	8d 8f       	std	Y+29, r24	; 0x1d
    17e4:	9e 8f       	std	Y+30, r25	; 0x1e
				params.ch1.main.extension_size = sizeof(portalMainExtBass);
    17e6:	86 e1       	ldi	r24, 0x16	; 22
    17e8:	90 e0       	ldi	r25, 0x00	; 0
    17ea:	8f 8f       	std	Y+31, r24	; 0x1f
    17ec:	98 a3       	std	Y+32, r25	; 0x20
			
				song_player_init(params, play_lights_portal);
    17ee:	87 ef       	ldi	r24, 0xF7	; 247
    17f0:	97 e0       	ldi	r25, 0x07	; 7
    17f2:	9f 93       	push	r25
    17f4:	8f 93       	push	r24
    17f6:	8d b7       	in	r24, 0x3d	; 61
    17f8:	9e b7       	in	r25, 0x3e	; 62
    17fa:	82 97       	sbiw	r24, 0x22	; 34
    17fc:	8d bf       	out	0x3d, r24	; 61
    17fe:	9e bf       	out	0x3e, r25	; 62
    1800:	ad b7       	in	r26, 0x3d	; 61
    1802:	be b7       	in	r27, 0x3e	; 62
    1804:	11 96       	adiw	r26, 0x01	; 1
    1806:	82 e2       	ldi	r24, 0x22	; 34
    1808:	fe 01       	movw	r30, r28
    180a:	31 96       	adiw	r30, 0x01	; 1
    180c:	01 90       	ld	r0, Z+
    180e:	0d 92       	st	X+, r0
    1810:	8a 95       	dec	r24
    1812:	e1 f7       	brne	.-8      	; 0x180c <start_up+0x204>
    1814:	0e 94 21 10 	call	0x2042	; 0x2042 <song_player_init>
				song_start();
    1818:	cd bf       	out	0x3d, r28	; 61
    181a:	de bf       	out	0x3e, r29	; 62
    181c:	0e 94 b4 10 	call	0x2168	; 0x2168 <song_start>
    1820:	6b c0       	rjmp	.+214    	; 0x18f8 <start_up+0x2f0>
						
			}
			break;
		case EASTER_EGG_sm:
			if (get_allow_easter_egg())
    1822:	0e 94 7e 11 	call	0x22fc	; 0x22fc <get_allow_easter_egg>
    1826:	88 23       	and	r24, r24
    1828:	09 f4       	brne	.+2      	; 0x182c <start_up+0x224>
    182a:	66 c0       	rjmp	.+204    	; 0x18f8 <start_up+0x2f0>
			{
				sys_timer_D5_init();
    182c:	0e 94 18 0e 	call	0x1c30	; 0x1c30 <sys_timer_D5_init>
				ws2812drv_init();
    1830:	0e 94 0a 12 	call	0x2414	; 0x2414 <ws2812drv_init>
				note_buttons_init();
    1834:	0e 94 eb 0a 	call	0x15d6	; 0x15d6 <note_buttons_init>
				dingle_input_init();
    1838:	0e 94 f8 0a 	call	0x15f0	; 0x15f0 <dingle_input_init>
    183c:	5d c0       	rjmp	.+186    	; 0x18f8 <start_up+0x2f0>
			}
			break;
		case EASTER_EGG_START_sm:
			
			song_out_init();
    183e:	0e 94 fb 0a 	call	0x15f6	; 0x15f6 <song_out_init>
			ws2812drv_init();
    1842:	0e 94 0a 12 	call	0x2414	; 0x2414 <ws2812drv_init>
			params.bmp_period = easterEggBPMPeriod;
    1846:	89 e0       	ldi	r24, 0x09	; 9
    1848:	9d e3       	ldi	r25, 0x3D	; 61
    184a:	89 a3       	std	Y+33, r24	; 0x21
    184c:	9a a3       	std	Y+34, r25	; 0x22
			params.ch0.intro.track_data = easterEggIntroTreble;
    184e:	8b ee       	ldi	r24, 0xEB	; 235
    1850:	90 e0       	ldi	r25, 0x00	; 0
    1852:	89 83       	std	Y+1, r24	; 0x01
    1854:	9a 83       	std	Y+2, r25	; 0x02
			params.ch0.intro.track_size = sizeof(easterEggIntroTreble);
    1856:	81 e0       	ldi	r24, 0x01	; 1
    1858:	90 e0       	ldi	r25, 0x00	; 0
    185a:	8b 83       	std	Y+3, r24	; 0x03
    185c:	9c 83       	std	Y+4, r25	; 0x04
			params.ch0.intro.extension_data = easterEggIntroExtTreble;
    185e:	2a ee       	ldi	r18, 0xEA	; 234
    1860:	30 e0       	ldi	r19, 0x00	; 0
    1862:	2d 83       	std	Y+5, r18	; 0x05
    1864:	3e 83       	std	Y+6, r19	; 0x06
			params.ch0.intro.extension_size = sizeof(easterEggIntroExtTreble);
    1866:	8f 83       	std	Y+7, r24	; 0x07
    1868:	98 87       	std	Y+8, r25	; 0x08
			params.ch0.main.track_data = easterEggMainTreble;
    186a:	25 ed       	ldi	r18, 0xD5	; 213
    186c:	30 e0       	ldi	r19, 0x00	; 0
    186e:	29 87       	std	Y+9, r18	; 0x09
    1870:	3a 87       	std	Y+10, r19	; 0x0a
			params.ch0.main.track_size = sizeof(easterEggMainTreble);
    1872:	25 e1       	ldi	r18, 0x15	; 21
    1874:	30 e0       	ldi	r19, 0x00	; 0
    1876:	2b 87       	std	Y+11, r18	; 0x0b
    1878:	3c 87       	std	Y+12, r19	; 0x0c
			params.ch0.main.extension_data = easterEggMainExtTreble;
    187a:	22 ed       	ldi	r18, 0xD2	; 210
    187c:	30 e0       	ldi	r19, 0x00	; 0
    187e:	2d 87       	std	Y+13, r18	; 0x0d
    1880:	3e 87       	std	Y+14, r19	; 0x0e
			params.ch0.main.extension_size = sizeof(easterEggMainExtTreble);
    1882:	23 e0       	ldi	r18, 0x03	; 3
    1884:	30 e0       	ldi	r19, 0x00	; 0
    1886:	2f 87       	std	Y+15, r18	; 0x0f
    1888:	38 8b       	std	Y+16, r19	; 0x10
			params.ch1.intro.track_data = easterEggIntroBass;
    188a:	21 ed       	ldi	r18, 0xD1	; 209
    188c:	30 e0       	ldi	r19, 0x00	; 0
    188e:	29 8b       	std	Y+17, r18	; 0x11
    1890:	3a 8b       	std	Y+18, r19	; 0x12
			params.ch1.intro.track_size = sizeof(easterEggIntroBass);
    1892:	8b 8b       	std	Y+19, r24	; 0x13
    1894:	9c 8b       	std	Y+20, r25	; 0x14
			params.ch1.intro.extension_data = easterEggIntroExtBass;
    1896:	20 ed       	ldi	r18, 0xD0	; 208
    1898:	30 e0       	ldi	r19, 0x00	; 0
    189a:	2d 8b       	std	Y+21, r18	; 0x15
    189c:	3e 8b       	std	Y+22, r19	; 0x16
			params.ch1.intro.extension_size = sizeof(easterEggIntroExtBass);
    189e:	8f 8b       	std	Y+23, r24	; 0x17
    18a0:	98 8f       	std	Y+24, r25	; 0x18
			params.ch1.main.track_data = easterEggMainBass;
    18a2:	80 eb       	ldi	r24, 0xB0	; 176
    18a4:	90 e0       	ldi	r25, 0x00	; 0
    18a6:	89 8f       	std	Y+25, r24	; 0x19
    18a8:	9a 8f       	std	Y+26, r25	; 0x1a
			params.ch1.main.track_size = sizeof(easterEggMainBass);
    18aa:	80 e2       	ldi	r24, 0x20	; 32
    18ac:	90 e0       	ldi	r25, 0x00	; 0
    18ae:	8b 8f       	std	Y+27, r24	; 0x1b
    18b0:	9c 8f       	std	Y+28, r25	; 0x1c
			params.ch1.main.extension_data = easterEggMainExtBass;
    18b2:	8c ea       	ldi	r24, 0xAC	; 172
    18b4:	90 e0       	ldi	r25, 0x00	; 0
    18b6:	8d 8f       	std	Y+29, r24	; 0x1d
    18b8:	9e 8f       	std	Y+30, r25	; 0x1e
			params.ch1.main.extension_size = sizeof(easterEggMainExtBass);
    18ba:	84 e0       	ldi	r24, 0x04	; 4
    18bc:	90 e0       	ldi	r25, 0x00	; 0
    18be:	8f 8f       	std	Y+31, r24	; 0x1f
    18c0:	98 a3       	std	Y+32, r25	; 0x20
				
			song_player_init(params, play_lights_easter_egg_intro);
    18c2:	8a e1       	ldi	r24, 0x1A	; 26
    18c4:	9a e0       	ldi	r25, 0x0A	; 10
    18c6:	9f 93       	push	r25
    18c8:	8f 93       	push	r24
    18ca:	8d b7       	in	r24, 0x3d	; 61
    18cc:	9e b7       	in	r25, 0x3e	; 62
    18ce:	82 97       	sbiw	r24, 0x22	; 34
    18d0:	8d bf       	out	0x3d, r24	; 61
    18d2:	9e bf       	out	0x3e, r25	; 62
    18d4:	ad b7       	in	r26, 0x3d	; 61
    18d6:	be b7       	in	r27, 0x3e	; 62
    18d8:	11 96       	adiw	r26, 0x01	; 1
    18da:	82 e2       	ldi	r24, 0x22	; 34
    18dc:	fe 01       	movw	r30, r28
    18de:	31 96       	adiw	r30, 0x01	; 1
    18e0:	01 90       	ld	r0, Z+
    18e2:	0d 92       	st	X+, r0
    18e4:	8a 95       	dec	r24
    18e6:	e1 f7       	brne	.-8      	; 0x18e0 <start_up+0x2d8>
    18e8:	0e 94 21 10 	call	0x2042	; 0x2042 <song_player_init>
			//song_start();
			song_play_once(next_start_mode);
    18ec:	cd bf       	out	0x3d, r28	; 61
    18ee:	de bf       	out	0x3e, r29	; 62
    18f0:	81 e0       	ldi	r24, 0x01	; 1
    18f2:	92 e1       	ldi	r25, 0x12	; 18
    18f4:	0e 94 b8 10 	call	0x2170	; 0x2170 <song_play_once>
			break;		
	}	
}
    18f8:	a2 96       	adiw	r28, 0x22	; 34
    18fa:	cd bf       	out	0x3d, r28	; 61
    18fc:	de bf       	out	0x3e, r29	; 62
    18fe:	df 91       	pop	r29
    1900:	cf 91       	pop	r28
    1902:	08 95       	ret

00001904 <check_start_mode_pin>:


void check_start_mode_pin()
{
	if (!(PORTA.IN & PIN0_bm))
    1904:	80 91 08 06 	lds	r24, 0x0608	; 0x800608 <__TEXT_REGION_LENGTH__+0x7fb608>
    1908:	80 fd       	sbrc	r24, 0
    190a:	13 c0       	rjmp	.+38     	; 0x1932 <check_start_mode_pin+0x2e>
	#else
		//round up by default
		__ticks_dc = (uint32_t)(ceil(fabs(__tmp)));
	#endif

	__builtin_avr_delay_cycles(__ticks_dc);
    190c:	2f ef       	ldi	r18, 0xFF	; 255
    190e:	80 e7       	ldi	r24, 0x70	; 112
    1910:	92 e0       	ldi	r25, 0x02	; 2
    1912:	21 50       	subi	r18, 0x01	; 1
    1914:	80 40       	sbci	r24, 0x00	; 0
    1916:	90 40       	sbci	r25, 0x00	; 0
    1918:	e1 f7       	brne	.-8      	; 0x1912 <check_start_mode_pin+0xe>
    191a:	00 c0       	rjmp	.+0      	; 0x191c <check_start_mode_pin+0x18>
    191c:	00 00       	nop
	{
		//Simple blocking debounce
		_delay_ms(25);
		if(!(PORTA.IN & PIN0_bm))
    191e:	80 91 08 06 	lds	r24, 0x0608	; 0x800608 <__TEXT_REGION_LENGTH__+0x7fb608>
    1922:	80 fd       	sbrc	r24, 0
    1924:	06 c0       	rjmp	.+12     	; 0x1932 <check_start_mode_pin+0x2e>
		{
			//Hold until the pin is released.
			while (!(PORTA.IN & PIN0_bm));
    1926:	80 91 08 06 	lds	r24, 0x0608	; 0x800608 <__TEXT_REGION_LENGTH__+0x7fb608>
    192a:	80 ff       	sbrs	r24, 0
    192c:	fc cf       	rjmp	.-8      	; 0x1926 <check_start_mode_pin+0x22>
			next_start_mode();
    192e:	0e 94 01 12 	call	0x2402	; 0x2402 <next_start_mode>
    1932:	08 95       	ret

00001934 <set_startup_mode_lights>:
		}
	}	
}

void set_startup_mode_lights(uint8_t mode)
{
    1934:	98 2f       	mov	r25, r24
	uint8_t temp = PORTD.OUT & 0x1F;
    1936:	e0 e6       	ldi	r30, 0x60	; 96
    1938:	f6 e0       	ldi	r31, 0x06	; 6
    193a:	84 81       	ldd	r24, Z+4	; 0x04
    193c:	28 2f       	mov	r18, r24
    193e:	2f 71       	andi	r18, 0x1F	; 31
	temp |= ((mode + 1) << 5);
    1940:	89 2f       	mov	r24, r25
    1942:	90 e0       	ldi	r25, 0x00	; 0
    1944:	01 96       	adiw	r24, 0x01	; 1
    1946:	88 0f       	add	r24, r24
    1948:	99 1f       	adc	r25, r25
    194a:	82 95       	swap	r24
    194c:	92 95       	swap	r25
    194e:	90 7f       	andi	r25, 0xF0	; 240
    1950:	98 27       	eor	r25, r24
    1952:	80 7f       	andi	r24, 0xF0	; 240
    1954:	98 27       	eor	r25, r24
    1956:	82 2b       	or	r24, r18
	PORTD.OUT = temp;
    1958:	84 83       	std	Z+4, r24	; 0x04
    195a:	08 95       	ret

0000195c <get_note_buttons>:
}

uint8_t get_note_buttons()
{
	return ((~PORTA.IN) & 0xF0) >> 4;
    195c:	80 91 08 06 	lds	r24, 0x0608	; 0x800608 <__TEXT_REGION_LENGTH__+0x7fb608>
    1960:	90 e0       	ldi	r25, 0x00	; 0
    1962:	80 95       	com	r24
    1964:	90 95       	com	r25
    1966:	80 7f       	andi	r24, 0xF0	; 240
    1968:	99 27       	eor	r25, r25
    196a:	95 95       	asr	r25
    196c:	87 95       	ror	r24
    196e:	95 95       	asr	r25
    1970:	87 95       	ror	r24
    1972:	95 95       	asr	r25
    1974:	87 95       	ror	r24
    1976:	95 95       	asr	r25
    1978:	87 95       	ror	r24
}
    197a:	08 95       	ret

0000197c <check_play_note>:

uint8_t check_play_note()
{
    197c:	cf 93       	push	r28
    197e:	df 93       	push	r29
	uint8_t note_buttons = get_note_buttons();
    1980:	0e 94 ae 0c 	call	0x195c	; 0x195c <get_note_buttons>
    1984:	c8 2f       	mov	r28, r24
	uint8_t val_changed = expander_get_val_changed();
    1986:	0e 94 59 05 	call	0xab2	; 0xab2 <expander_get_val_changed>
    198a:	d8 2f       	mov	r29, r24
	uint8_t playing = note_player_playing();
    198c:	0e 94 84 0e 	call	0x1d08	; 0x1d08 <note_player_playing>
	if (note_buttons && val_changed && !(playing))
    1990:	cc 23       	and	r28, r28
    1992:	11 f1       	breq	.+68     	; 0x19d8 <check_play_note+0x5c>
    1994:	dd 23       	and	r29, r29
    1996:	01 f1       	breq	.+64     	; 0x19d8 <check_play_note+0x5c>
    1998:	81 11       	cpse	r24, r1
    199a:	1e c0       	rjmp	.+60     	; 0x19d8 <check_play_note+0x5c>
	{
		note_play(note_buttons);		
    199c:	8c 2f       	mov	r24, r28
    199e:	0e 94 54 0e 	call	0x1ca8	; 0x1ca8 <note_play>
		
		if (note_buttons == easter_egg_pattern[easter_egg_index])
    19a2:	80 91 aa 21 	lds	r24, 0x21AA	; 0x8021aa <easter_egg_index>
    19a6:	e8 2f       	mov	r30, r24
    19a8:	f0 e0       	ldi	r31, 0x00	; 0
    19aa:	e9 5d       	subi	r30, 0xD9	; 217
    19ac:	ff 4d       	sbci	r31, 0xDF	; 223
    19ae:	90 81       	ld	r25, Z
    19b0:	c9 13       	cpse	r28, r25
    19b2:	10 c0       	rjmp	.+32     	; 0x19d4 <check_play_note+0x58>
		{
			easter_egg_index++;
    19b4:	8f 5f       	subi	r24, 0xFF	; 255
    19b6:	80 93 aa 21 	sts	0x21AA, r24	; 0x8021aa <easter_egg_index>
			
			if (easter_egg_index == easter_egg_size)
    19ba:	90 91 26 20 	lds	r25, 0x2026	; 0x802026 <easter_egg_size>
    19be:	89 13       	cpse	r24, r25
    19c0:	0b c0       	rjmp	.+22     	; 0x19d8 <check_play_note+0x5c>
			{
				
				set_allow_easter_egg(ALLOW_VAL);
    19c2:	85 e5       	ldi	r24, 0x55	; 85
    19c4:	0e 94 81 11 	call	0x2302	; 0x2302 <set_allow_easter_egg>
				easter_egg_index = 0;
    19c8:	10 92 aa 21 	sts	0x21AA, r1	; 0x8021aa <easter_egg_index>
				set_start_mode(EASTER_EGG_START_sm);
    19cc:	8f ee       	ldi	r24, 0xEF	; 239
    19ce:	0e 94 d0 11 	call	0x23a0	; 0x23a0 <set_start_mode>
    19d2:	02 c0       	rjmp	.+4      	; 0x19d8 <check_play_note+0x5c>
			}			
		}
		else
		{
			easter_egg_index = 0;
    19d4:	10 92 aa 21 	sts	0x21AA, r1	; 0x8021aa <easter_egg_index>
		}
	}

	return note_buttons;
}
    19d8:	8c 2f       	mov	r24, r28
    19da:	df 91       	pop	r29
    19dc:	cf 91       	pop	r28
    19de:	08 95       	ret

000019e0 <check_play_easter_egg>:

uint8_t check_play_easter_egg()
{
    19e0:	cf 93       	push	r28
	uint8_t note_buttons = get_note_buttons();
    19e2:	0e 94 ae 0c 	call	0x195c	; 0x195c <get_note_buttons>
    19e6:	c8 2f       	mov	r28, r24

	if (note_buttons && expander_get_val_changed())
    19e8:	88 23       	and	r24, r24
    19ea:	69 f0       	breq	.+26     	; 0x1a06 <check_play_easter_egg+0x26>
    19ec:	0e 94 59 05 	call	0xab2	; 0xab2 <expander_get_val_changed>
    19f0:	88 23       	and	r24, r24
    19f2:	49 f0       	breq	.+18     	; 0x1a06 <check_play_easter_egg+0x26>
	{
		meeseeks_data[1] = note_buttons;
    19f4:	c0 93 38 20 	sts	0x2038, r28	; 0x802038 <meeseeks_data+0x1>
		twi_write(MEESEEKS_ADDR, meeseeks_data, sizeof(meeseeks_data));
    19f8:	42 e0       	ldi	r20, 0x02	; 2
    19fa:	50 e0       	ldi	r21, 0x00	; 0
    19fc:	67 e3       	ldi	r22, 0x37	; 55
    19fe:	70 e2       	ldi	r23, 0x20	; 32
    1a00:	82 e1       	ldi	r24, 0x12	; 18
    1a02:	0e 94 3b 04 	call	0x876	; 0x876 <twi_write>
	}

	return note_buttons;	
	
}
    1a06:	8c 2f       	mov	r24, r28
    1a08:	cf 91       	pop	r28
    1a0a:	08 95       	ret

00001a0c <get_unlock_detected>:

uint8_t get_unlock_detected()
{
	PORTC.DIRSET = PIN5_bm;
    1a0c:	e0 e4       	ldi	r30, 0x40	; 64
    1a0e:	f6 e0       	ldi	r31, 0x06	; 6
    1a10:	80 e2       	ldi	r24, 0x20	; 32
    1a12:	81 83       	std	Z+1, r24	; 0x01
	PORTC.DIRCLR = PIN6_bm;
    1a14:	80 e4       	ldi	r24, 0x40	; 64
    1a16:	82 83       	std	Z+2, r24	; 0x02
	PORTC.PIN6CTRL = PORT_OPC_PULLDOWN_gc;
    1a18:	80 e1       	ldi	r24, 0x10	; 16
    1a1a:	86 8b       	std	Z+22, r24	; 0x16
    1a1c:	8f e3       	ldi	r24, 0x3F	; 63
    1a1e:	9f e1       	ldi	r25, 0x1F	; 31
    1a20:	01 97       	sbiw	r24, 0x01	; 1
    1a22:	f1 f7       	brne	.-4      	; 0x1a20 <get_unlock_detected+0x14>
    1a24:	00 c0       	rjmp	.+0      	; 0x1a26 <get_unlock_detected+0x1a>
    1a26:	00 00       	nop
	_delay_ms(1);
	//PIN6 should be low
	if (PORTC.IN & PIN6_bm)
    1a28:	80 85       	ldd	r24, Z+8	; 0x08
    1a2a:	28 2f       	mov	r18, r24
    1a2c:	20 74       	andi	r18, 0x40	; 64
    1a2e:	86 fd       	sbrc	r24, 6
    1a30:	3c c0       	rjmp	.+120    	; 0x1aaa <get_unlock_detected+0x9e>
    1a32:	8f e3       	ldi	r24, 0x3F	; 63
    1a34:	9f e1       	ldi	r25, 0x1F	; 31
    1a36:	01 97       	sbiw	r24, 0x01	; 1
    1a38:	f1 f7       	brne	.-4      	; 0x1a36 <get_unlock_detected+0x2a>
    1a3a:	00 c0       	rjmp	.+0      	; 0x1a3c <get_unlock_detected+0x30>
    1a3c:	00 00       	nop
	{
		return 0;
	}
	_delay_ms(1);
	PORTC.OUTSET = PIN5_bm;
    1a3e:	80 e2       	ldi	r24, 0x20	; 32
    1a40:	85 83       	std	Z+5, r24	; 0x05
    1a42:	8f e3       	ldi	r24, 0x3F	; 63
    1a44:	9f e1       	ldi	r25, 0x1F	; 31
    1a46:	01 97       	sbiw	r24, 0x01	; 1
    1a48:	f1 f7       	brne	.-4      	; 0x1a46 <get_unlock_detected+0x3a>
    1a4a:	00 c0       	rjmp	.+0      	; 0x1a4c <get_unlock_detected+0x40>
    1a4c:	00 00       	nop
	_delay_ms(1);
	//PIN6 should be high
	if (!(PORTC.IN & PIN6_bm))
    1a4e:	90 85       	ldd	r25, Z+8	; 0x08
    1a50:	89 2f       	mov	r24, r25
    1a52:	80 74       	andi	r24, 0x40	; 64
    1a54:	96 ff       	sbrs	r25, 6
    1a56:	2c c0       	rjmp	.+88     	; 0x1ab0 <get_unlock_detected+0xa4>
    1a58:	8f e3       	ldi	r24, 0x3F	; 63
    1a5a:	9f e1       	ldi	r25, 0x1F	; 31
    1a5c:	01 97       	sbiw	r24, 0x01	; 1
    1a5e:	f1 f7       	brne	.-4      	; 0x1a5c <get_unlock_detected+0x50>
    1a60:	00 c0       	rjmp	.+0      	; 0x1a62 <get_unlock_detected+0x56>
    1a62:	00 00       	nop
	{
		return 0;
	}	
	_delay_ms(1);
	PORTC.OUTCLR = PIN5_bm;
    1a64:	80 e2       	ldi	r24, 0x20	; 32
    1a66:	86 83       	std	Z+6, r24	; 0x06
    1a68:	8f e3       	ldi	r24, 0x3F	; 63
    1a6a:	9f e1       	ldi	r25, 0x1F	; 31
    1a6c:	01 97       	sbiw	r24, 0x01	; 1
    1a6e:	f1 f7       	brne	.-4      	; 0x1a6c <get_unlock_detected+0x60>
    1a70:	00 c0       	rjmp	.+0      	; 0x1a72 <get_unlock_detected+0x66>
    1a72:	00 00       	nop
	_delay_ms(1);
	
	//PIN6 should be low
	if (PORTC.IN & PIN6_bm)
    1a74:	80 85       	ldd	r24, Z+8	; 0x08
    1a76:	86 fd       	sbrc	r24, 6
    1a78:	1a c0       	rjmp	.+52     	; 0x1aae <get_unlock_detected+0xa2>
    1a7a:	8f e3       	ldi	r24, 0x3F	; 63
    1a7c:	9f e1       	ldi	r25, 0x1F	; 31
    1a7e:	01 97       	sbiw	r24, 0x01	; 1
    1a80:	f1 f7       	brne	.-4      	; 0x1a7e <get_unlock_detected+0x72>
    1a82:	00 c0       	rjmp	.+0      	; 0x1a84 <get_unlock_detected+0x78>
    1a84:	00 00       	nop
	{
		return 0;
	}
	_delay_ms(1);
	PORTC.OUTSET = PIN5_bm;
    1a86:	80 e2       	ldi	r24, 0x20	; 32
    1a88:	85 83       	std	Z+5, r24	; 0x05
    1a8a:	8f e3       	ldi	r24, 0x3F	; 63
    1a8c:	9f e1       	ldi	r25, 0x1F	; 31
    1a8e:	01 97       	sbiw	r24, 0x01	; 1
    1a90:	f1 f7       	brne	.-4      	; 0x1a8e <get_unlock_detected+0x82>
    1a92:	00 c0       	rjmp	.+0      	; 0x1a94 <get_unlock_detected+0x88>
    1a94:	00 00       	nop
	_delay_ms(1);
	//PIN6 should be high
	if (!(PORTC.IN & PIN6_bm))
    1a96:	90 85       	ldd	r25, Z+8	; 0x08
    1a98:	89 2f       	mov	r24, r25
    1a9a:	80 74       	andi	r24, 0x40	; 64
    1a9c:	96 ff       	sbrs	r25, 6
    1a9e:	08 c0       	rjmp	.+16     	; 0x1ab0 <get_unlock_detected+0xa4>
	{
		return 0;
	}
	
	PORTC.OUTCLR = PIN5_bm;
    1aa0:	80 e2       	ldi	r24, 0x20	; 32
    1aa2:	86 83       	std	Z+6, r24	; 0x06
	PORTC.DIRCLR = PIN5_bm;
    1aa4:	82 83       	std	Z+2, r24	; 0x02
	return ALLOW_VAL;	
    1aa6:	85 e5       	ldi	r24, 0x55	; 85
    1aa8:	08 95       	ret
	PORTC.PIN6CTRL = PORT_OPC_PULLDOWN_gc;
	_delay_ms(1);
	//PIN6 should be low
	if (PORTC.IN & PIN6_bm)
	{
		return 0;
    1aaa:	80 e0       	ldi	r24, 0x00	; 0
    1aac:	08 95       	ret
	_delay_ms(1);
	
	//PIN6 should be low
	if (PORTC.IN & PIN6_bm)
	{
		return 0;
    1aae:	82 2f       	mov	r24, r18
	}
	
	PORTC.OUTCLR = PIN5_bm;
	PORTC.DIRCLR = PIN5_bm;
	return ALLOW_VAL;	
}
    1ab0:	08 95       	ret

00001ab2 <main>:
int main(void)
{
	uint8_t note_buttons;
	
	//Debug pin
	PORTA.DIRSET = PIN3_bm;
    1ab2:	e0 e0       	ldi	r30, 0x00	; 0
    1ab4:	f6 e0       	ldi	r31, 0x06	; 6
    1ab6:	88 e0       	ldi	r24, 0x08	; 8
    1ab8:	81 83       	std	Z+1, r24	; 0x01
	PORTA.OUTCLR = PIN3_bm;
    1aba:	86 83       	std	Z+6, r24	; 0x06
			
	cli();
    1abc:	f8 94       	cli
	clk_init();
    1abe:	0e 94 bc 0a 	call	0x1578	; 0x1578 <clk_init>
	interrupt_init();
    1ac2:	0e 94 ce 0a 	call	0x159c	; 0x159c <interrupt_init>
	sei();
    1ac6:	78 94       	sei
		
	io_init();
    1ac8:	0e 94 d2 0a 	call	0x15a4	; 0x15a4 <io_init>
	expander_init();
    1acc:	0e 94 33 05 	call	0xa66	; 0xa66 <expander_init>
	
	//Hold until the pin is released.
	while (!(PORTA.IN & PIN0_bm));
    1ad0:	80 91 08 06 	lds	r24, 0x0608	; 0x800608 <__TEXT_REGION_LENGTH__+0x7fb608>
    1ad4:	80 ff       	sbrs	r24, 0
    1ad6:	fc cf       	rjmp	.-8      	; 0x1ad0 <main+0x1e>

	


	start_mode_init(get_unlock_detected());
    1ad8:	0e 94 06 0d 	call	0x1a0c	; 0x1a0c <get_unlock_detected>
    1adc:	0e 94 9b 11 	call	0x2336	; 0x2336 <start_mode_init>
	set_startup_mode_lights(get_start_mode());
    1ae0:	0e 94 8c 11 	call	0x2318	; 0x2318 <get_start_mode>
    1ae4:	0e 94 9a 0c 	call	0x1934	; 0x1934 <set_startup_mode_lights>
	start_up(get_start_mode());	
    1ae8:	0e 94 8c 11 	call	0x2318	; 0x2318 <get_start_mode>
    1aec:	0e 94 04 0b 	call	0x1608	; 0x1608 <start_up>
	reset_start_mode_in_eeprom();
    1af0:	0e 94 8f 11 	call	0x231e	; 0x231e <reset_start_mode_in_eeprom>

    /* Replace with your application code */
    while (1) 
    {
		//TEMP: move to interrupt handler
		check_start_mode_pin();
    1af4:	0e 94 82 0c 	call	0x1904	; 0x1904 <check_start_mode_pin>
		if (display_ctr >= 10)
    1af8:	80 91 ab 21 	lds	r24, 0x21AB	; 0x8021ab <display_ctr>
    1afc:	90 91 ac 21 	lds	r25, 0x21AC	; 0x8021ac <display_ctr+0x1>
    1b00:	0a 97       	sbiw	r24, 0x0a	; 10
    1b02:	c0 f3       	brcs	.-16     	; 0x1af4 <main+0x42>
		{		
			PORTA.OUTTGL = PIN3_bm;
    1b04:	88 e0       	ldi	r24, 0x08	; 8
    1b06:	80 93 07 06 	sts	0x0607, r24	; 0x800607 <__TEXT_REGION_LENGTH__+0x7fb607>
			switch (get_start_mode())
    1b0a:	0e 94 8c 11 	call	0x2318	; 0x2318 <get_start_mode>
    1b0e:	84 30       	cpi	r24, 0x04	; 4
    1b10:	38 f4       	brcc	.+14     	; 0x1b20 <main+0x6e>
    1b12:	82 30       	cpi	r24, 0x02	; 2
    1b14:	a0 f4       	brcc	.+40     	; 0x1b3e <main+0x8c>
    1b16:	88 23       	and	r24, r24
    1b18:	31 f0       	breq	.+12     	; 0x1b26 <main+0x74>
    1b1a:	81 30       	cpi	r24, 0x01	; 1
    1b1c:	39 f0       	breq	.+14     	; 0x1b2c <main+0x7a>
    1b1e:	1c c0       	rjmp	.+56     	; 0x1b58 <main+0xa6>
    1b20:	86 30       	cpi	r24, 0x06	; 6
    1b22:	91 f0       	breq	.+36     	; 0x1b48 <main+0x96>
    1b24:	19 c0       	rjmp	.+50     	; 0x1b58 <main+0xa6>
			{
				case STANDBY_sm:
					play_lights_standby();
    1b26:	0e 94 5b 06 	call	0xcb6	; 0xcb6 <play_lights_standby>
					break;
    1b2a:	16 c0       	rjmp	.+44     	; 0x1b58 <main+0xa6>
				case FREEPLAY_sm:
					note_buttons = check_play_note();
    1b2c:	0e 94 be 0c 	call	0x197c	; 0x197c <check_play_note>
    1b30:	c8 2f       	mov	r28, r24
					//Use the LED array, the last value from the dingle pos, and the note buttons
 					play_lights_free_play(expander_get_last_value(), note_buttons);
    1b32:	0e 94 54 05 	call	0xaa8	; 0xaa8 <expander_get_last_value>
    1b36:	6c 2f       	mov	r22, r28
    1b38:	0e 94 99 06 	call	0xd32	; 0xd32 <play_lights_free_play>

					break;
    1b3c:	0d c0       	rjmp	.+26     	; 0x1b58 <main+0xa6>
				case GAME_EASY_sm:					
				case GAME_HARD_sm:
					games_step(get_note_buttons());
    1b3e:	0e 94 ae 0c 	call	0x195c	; 0x195c <get_note_buttons>
    1b42:	0e 94 b7 02 	call	0x56e	; 0x56e <games_step>
					break;
    1b46:	08 c0       	rjmp	.+16     	; 0x1b58 <main+0xa6>
				case EASTER_EGG_sm:
					note_buttons = check_play_easter_egg();
    1b48:	0e 94 f0 0c 	call	0x19e0	; 0x19e0 <check_play_easter_egg>
    1b4c:	c8 2f       	mov	r28, r24
					//Use the LED array, the last value from the dingle pos, and the note buttons
					play_lights_easter_egg(expander_read_ports(), note_buttons);	
    1b4e:	0e 94 24 05 	call	0xa48	; 0xa48 <expander_read_ports>
    1b52:	6c 2f       	mov	r22, r28
    1b54:	0e 94 9c 09 	call	0x1338	; 0x1338 <play_lights_easter_egg>
					break;
			}
			display_ctr = 0;
    1b58:	10 92 ab 21 	sts	0x21AB, r1	; 0x8021ab <display_ctr>
    1b5c:	10 92 ac 21 	sts	0x21AC, r1	; 0x8021ac <display_ctr+0x1>
    1b60:	c9 cf       	rjmp	.-110    	; 0x1af4 <main+0x42>

00001b62 <__vector_12>:

    }
}

ISR(TCC4_OVF_vect)
{
    1b62:	1f 92       	push	r1
    1b64:	0f 92       	push	r0
    1b66:	0f b6       	in	r0, 0x3f	; 63
    1b68:	0f 92       	push	r0
    1b6a:	11 24       	eor	r1, r1
    1b6c:	2f 93       	push	r18
    1b6e:	3f 93       	push	r19
    1b70:	4f 93       	push	r20
    1b72:	5f 93       	push	r21
    1b74:	6f 93       	push	r22
    1b76:	7f 93       	push	r23
    1b78:	8f 93       	push	r24
    1b7a:	9f 93       	push	r25
    1b7c:	af 93       	push	r26
    1b7e:	bf 93       	push	r27
    1b80:	ef 93       	push	r30
    1b82:	ff 93       	push	r31
// 	PORTA.OUTTGL = PIN3_bm;
	song_interrupt_handler();
    1b84:	0e 94 bf 10 	call	0x217e	; 0x217e <song_interrupt_handler>
}
    1b88:	ff 91       	pop	r31
    1b8a:	ef 91       	pop	r30
    1b8c:	bf 91       	pop	r27
    1b8e:	af 91       	pop	r26
    1b90:	9f 91       	pop	r25
    1b92:	8f 91       	pop	r24
    1b94:	7f 91       	pop	r23
    1b96:	6f 91       	pop	r22
    1b98:	5f 91       	pop	r21
    1b9a:	4f 91       	pop	r20
    1b9c:	3f 91       	pop	r19
    1b9e:	2f 91       	pop	r18
    1ba0:	0f 90       	pop	r0
    1ba2:	0f be       	out	0x3f, r0	; 63
    1ba4:	0f 90       	pop	r0
    1ba6:	1f 90       	pop	r1
    1ba8:	18 95       	reti

00001baa <__vector_3>:

ISR(EDMA_CH0_vect)
{
    1baa:	1f 92       	push	r1
    1bac:	0f 92       	push	r0
    1bae:	0f b6       	in	r0, 0x3f	; 63
    1bb0:	0f 92       	push	r0
    1bb2:	11 24       	eor	r1, r1
    1bb4:	2f 93       	push	r18
    1bb6:	3f 93       	push	r19
    1bb8:	4f 93       	push	r20
    1bba:	5f 93       	push	r21
    1bbc:	6f 93       	push	r22
    1bbe:	7f 93       	push	r23
    1bc0:	8f 93       	push	r24
    1bc2:	9f 93       	push	r25
    1bc4:	af 93       	push	r26
    1bc6:	bf 93       	push	r27
    1bc8:	ef 93       	push	r30
    1bca:	ff 93       	push	r31
	note_interrupt_handler();
    1bcc:	0e 94 81 0e 	call	0x1d02	; 0x1d02 <note_interrupt_handler>
}
    1bd0:	ff 91       	pop	r31
    1bd2:	ef 91       	pop	r30
    1bd4:	bf 91       	pop	r27
    1bd6:	af 91       	pop	r26
    1bd8:	9f 91       	pop	r25
    1bda:	8f 91       	pop	r24
    1bdc:	7f 91       	pop	r23
    1bde:	6f 91       	pop	r22
    1be0:	5f 91       	pop	r21
    1be2:	4f 91       	pop	r20
    1be4:	3f 91       	pop	r19
    1be6:	2f 91       	pop	r18
    1be8:	0f 90       	pop	r0
    1bea:	0f be       	out	0x3f, r0	; 63
    1bec:	0f 90       	pop	r0
    1bee:	1f 90       	pop	r1
    1bf0:	18 95       	reti

00001bf2 <__vector_38>:

ISR(TCD5_CCA_vect)
{
    1bf2:	1f 92       	push	r1
    1bf4:	0f 92       	push	r0
    1bf6:	0f b6       	in	r0, 0x3f	; 63
    1bf8:	0f 92       	push	r0
    1bfa:	11 24       	eor	r1, r1
    1bfc:	8f 93       	push	r24
    1bfe:	9f 93       	push	r25
	display_ctr++;
    1c00:	80 91 ab 21 	lds	r24, 0x21AB	; 0x8021ab <display_ctr>
    1c04:	90 91 ac 21 	lds	r25, 0x21AC	; 0x8021ac <display_ctr+0x1>
    1c08:	01 96       	adiw	r24, 0x01	; 1
    1c0a:	80 93 ab 21 	sts	0x21AB, r24	; 0x8021ab <display_ctr>
    1c0e:	90 93 ac 21 	sts	0x21AC, r25	; 0x8021ac <display_ctr+0x1>
    1c12:	9f 91       	pop	r25
    1c14:	8f 91       	pop	r24
    1c16:	0f 90       	pop	r0
    1c18:	0f be       	out	0x3f, r0	; 63
    1c1a:	0f 90       	pop	r0
    1c1c:	1f 90       	pop	r1
    1c1e:	18 95       	reti

00001c20 <note_timer_C5_init>:
uint8_t playing = 0;


void note_timer_C5_init()
{
	TCC5.CTRLB = TC_BYTEM_NORMAL_gc | TC_CIRCEN_DISABLE_gc | TC_WGMODE_FRQ_gc;
    1c20:	e0 e4       	ldi	r30, 0x40	; 64
    1c22:	f8 e0       	ldi	r31, 0x08	; 8
    1c24:	81 e0       	ldi	r24, 0x01	; 1
    1c26:	81 83       	std	Z+1, r24	; 0x01
	TCC5.CTRLE = TC_CCAMODE_COMP_gc;
    1c28:	84 83       	std	Z+4, r24	; 0x04
	TCC5.CTRLA = TC_CLKSEL_DIV8_gc;
    1c2a:	84 e0       	ldi	r24, 0x04	; 4
    1c2c:	80 83       	st	Z, r24
    1c2e:	08 95       	ret

00001c30 <sys_timer_D5_init>:
}

void sys_timer_D5_init()
{
	TCD5.CTRLB = TC_BYTEM_NORMAL_gc | TC_CIRCEN_DISABLE_gc | TC_WGMODE_NORMAL_gc;
    1c30:	e0 e4       	ldi	r30, 0x40	; 64
    1c32:	f9 e0       	ldi	r31, 0x09	; 9
    1c34:	11 82       	std	Z+1, r1	; 0x01
	TCD5.CTRLE = 0;
    1c36:	14 82       	std	Z+4, r1	; 0x04
	TCD5.INTCTRLB = TC_OVFINTLVL_HI_gc;
    1c38:	83 e0       	ldi	r24, 0x03	; 3
    1c3a:	87 83       	std	Z+7, r24	; 0x07
	TCD5.CTRLA = TC_CLKSEL_DIV1024_gc;
    1c3c:	87 e0       	ldi	r24, 0x07	; 7
    1c3e:	80 83       	st	Z, r24
	TCD5.PER = 312; //100Hz
    1c40:	88 e3       	ldi	r24, 0x38	; 56
    1c42:	91 e0       	ldi	r25, 0x01	; 1
    1c44:	86 a3       	std	Z+38, r24	; 0x26
    1c46:	97 a3       	std	Z+39, r25	; 0x27
    1c48:	08 95       	ret

00001c4a <note_decay_init>:
}

void note_decay_init()
{
	////////////////////////////////////////// Timer and Event config ?
	EVSYS.CH1MUX =
    1c4a:	80 ec       	ldi	r24, 0xC0	; 192
    1c4c:	80 93 81 01 	sts	0x0181, r24	; 0x800181 <__TEXT_REGION_LENGTH__+0x7fb181>
	EVSYS_CHMUX_TCC4_OVF_gc;        // Event ch1 = tcc4 overflow
	TCC4.PER = 1200;
    1c50:	e0 e0       	ldi	r30, 0x00	; 0
    1c52:	f8 e0       	ldi	r31, 0x08	; 8
    1c54:	80 eb       	ldi	r24, 0xB0	; 176
    1c56:	94 e0       	ldi	r25, 0x04	; 4
    1c58:	86 a3       	std	Z+38, r24	; 0x26
    1c5a:	97 a3       	std	Z+39, r25	; 0x27
	TCC4.CTRLA = TC_CLKSEL_DIV1024_gc;
    1c5c:	87 e0       	ldi	r24, 0x07	; 7
    1c5e:	80 83       	st	Z, r24
	
	////////////////////////////////////////// DAC config
	DACA.CTRLB =
    1c60:	e0 e0       	ldi	r30, 0x00	; 0
    1c62:	f3 e0       	ldi	r31, 0x03	; 3
    1c64:	81 e0       	ldi	r24, 0x01	; 1
    1c66:	81 83       	std	Z+1, r24	; 0x01
	DAC_CHSEL_SINGLE_gc |          // DAC ch0 is active
	DAC_CH0TRIG_bm;			// DAC ch0 auto triggered by an event (CH1)
	DACA.CTRLC =
    1c68:	98 e0       	ldi	r25, 0x08	; 8
    1c6a:	92 83       	std	Z+2, r25	; 0x02
	DAC_REFSEL_AVCC_gc;             // Use AVCC (3.3v), right adj
	DACA.EVCTRL =
    1c6c:	83 83       	std	Z+3, r24	; 0x03
	DAC_EVSEL_1_gc;                 // Event Ch1 triggers the DAC conversion
	DACA.CTRLA = DAC_CH0EN_bm | DAC_ENABLE_bm;  // enable DACA channel 0
    1c6e:	85 e0       	ldi	r24, 0x05	; 5
    1c70:	80 83       	st	Z, r24
	
	EDMA.CH0.CTRLA = EDMA_CH_RESET_bm;
    1c72:	e0 e0       	ldi	r30, 0x00	; 0
    1c74:	f1 e0       	ldi	r31, 0x01	; 1
    1c76:	80 e4       	ldi	r24, 0x40	; 64
    1c78:	80 8b       	std	Z+16, r24	; 0x10
	EDMA.CH0.ADDRCTRL =
    1c7a:	81 e3       	ldi	r24, 0x31	; 49
    1c7c:	82 8b       	std	Z+18, r24	; 0x12
	EDMA_CH_RELOAD_TRANSACTION_gc |   // Reload after transaction
	EDMA_CH_DIR_INC_gc;		  // increment source address
	EDMA.CH0.TRIGSRC =
    1c7e:	85 e1       	ldi	r24, 0x15	; 21
    1c80:	84 8b       	std	Z+20, r24	; 0x14
	EDMA_CH_TRIGSRC_DACA_CH0_gc;	  // DACA Ch0 is trigger source
	
	EDMA.CH0.CTRLB =
    1c82:	83 e1       	ldi	r24, 0x13	; 19
    1c84:	81 8b       	std	Z+17, r24	; 0x11
	EDMA_CH_TRNIF_bm |               //  Clear flag
	EDMA_CH_TRNINTLVL_HI_gc;          // For XMegaE5, this ISR is necessary to re-enable channel after transaction
	
	EDMA.CTRL = EDMA_ENABLE_bm; 	          // Enable, single buffer, round robin
    1c86:	80 e8       	ldi	r24, 0x80	; 128
    1c88:	80 83       	st	Z, r24
    1c8a:	08 95       	ret

00001c8c <run_note_decay>:
}

void run_note_decay()
{
	
	EDMA.CH0.TRFCNT = decay_table_len;                  // data array has len values
    1c8c:	80 91 39 20 	lds	r24, 0x2039	; 0x802039 <decay_table_len>
    1c90:	90 e0       	ldi	r25, 0x00	; 0
    1c92:	e0 e0       	ldi	r30, 0x00	; 0
    1c94:	f1 e0       	ldi	r31, 0x01	; 1
    1c96:	86 8b       	std	Z+22, r24	; 0x16
    1c98:	97 8b       	std	Z+23, r25	; 0x17
	EDMA.CH0.ADDR = (uint16_t)expDecayVals;           // this is the source SRAM address
    1c9a:	85 e8       	ldi	r24, 0x85	; 133
    1c9c:	90 e2       	ldi	r25, 0x20	; 32
    1c9e:	80 8f       	std	Z+24, r24	; 0x18
    1ca0:	91 8f       	std	Z+25, r25	; 0x19
	EDMA.CH0.CTRLA =
    1ca2:	85 e8       	ldi	r24, 0x85	; 133
    1ca4:	80 8b       	std	Z+16, r24	; 0x10
    1ca6:	08 95       	ret

00001ca8 <note_play>:
	EDMA_CH_SINGLE_bm |               //   one burst per trigger
	EDMA_CH_BURSTLEN_bm;              //   2 bytes per burst
}

void note_play(uint8_t note_index)
{
    1ca8:	cf 93       	push	r28
    1caa:	df 93       	push	r29
	playing = 1;
    1cac:	91 e0       	ldi	r25, 0x01	; 1
    1cae:	90 93 ad 21 	sts	0x21AD, r25	; 0x8021ad <playing>
	TCC5.CCA = noteClocks[STARTING_NOTE_INDEX + note_index];
    1cb2:	e8 2f       	mov	r30, r24
    1cb4:	f0 e0       	ldi	r31, 0x00	; 0
    1cb6:	37 96       	adiw	r30, 0x07	; 7
    1cb8:	ee 0f       	add	r30, r30
    1cba:	ff 1f       	adc	r31, r31
    1cbc:	e1 56       	subi	r30, 0x61	; 97
    1cbe:	ff 4d       	sbci	r31, 0xDF	; 223
    1cc0:	80 81       	ld	r24, Z
    1cc2:	91 81       	ldd	r25, Z+1	; 0x01
    1cc4:	c0 e4       	ldi	r28, 0x40	; 64
    1cc6:	d8 e0       	ldi	r29, 0x08	; 8
    1cc8:	88 a7       	std	Y+40, r24	; 0x28
    1cca:	99 a7       	std	Y+41, r25	; 0x29
	run_note_decay();
    1ccc:	0e 94 46 0e 	call	0x1c8c	; 0x1c8c <run_note_decay>
	TCC5.CTRLA = TC_CLKSEL_DIV8_gc;// TC_CLKSEL_DIV1024_gc;
    1cd0:	84 e0       	ldi	r24, 0x04	; 4
    1cd2:	88 83       	st	Y, r24
}
    1cd4:	df 91       	pop	r29
    1cd6:	cf 91       	pop	r28
    1cd8:	08 95       	ret

00001cda <reset_play>:

void reset_play()
{
	playing = 0;
    1cda:	10 92 ad 21 	sts	0x21AD, r1	; 0x8021ad <playing>
	EDMA.CH0.CTRLB |= EDMA_CH_TRNIF_bm;   // clear INT flag    // EDMA.INTFLAGS = EDMA_CH0TRNFIF_bm;    // alternate flag location also works
    1cde:	e0 e0       	ldi	r30, 0x00	; 0
    1ce0:	f1 e0       	ldi	r31, 0x01	; 1
    1ce2:	81 89       	ldd	r24, Z+17	; 0x11
    1ce4:	80 61       	ori	r24, 0x10	; 16
    1ce6:	81 8b       	std	Z+17, r24	; 0x11
	TCC5.CNT = 0;
    1ce8:	e0 e4       	ldi	r30, 0x40	; 64
    1cea:	f8 e0       	ldi	r31, 0x08	; 8
    1cec:	10 a2       	std	Z+32, r1	; 0x20
    1cee:	11 a2       	std	Z+33, r1	; 0x21
	TCC5.CTRLA = 0;// TC_CLKSEL_DIV1024_gc;
    1cf0:	10 82       	st	Z, r1
    1cf2:	08 95       	ret

00001cf4 <note_player_init>:
}

void note_player_init()
{
	note_timer_C5_init();
    1cf4:	0e 94 10 0e 	call	0x1c20	; 0x1c20 <note_timer_C5_init>
	sys_timer_D5_init();
    1cf8:	0e 94 18 0e 	call	0x1c30	; 0x1c30 <sys_timer_D5_init>
	note_decay_init();
    1cfc:	0e 94 25 0e 	call	0x1c4a	; 0x1c4a <note_decay_init>
    1d00:	08 95       	ret

00001d02 <note_interrupt_handler>:
}

void note_interrupt_handler()
{
	reset_play();
    1d02:	0e 94 6d 0e 	call	0x1cda	; 0x1cda <reset_play>
    1d06:	08 95       	ret

00001d08 <note_player_playing>:
}

uint8_t note_player_playing()
{
	return playing;
    1d08:	80 91 ad 21 	lds	r24, 0x21AD	; 0x8021ad <playing>
    1d0c:	08 95       	ret

00001d0e <get_seed>:
#include <stdlib.h>
#include <avr/io.h>

unsigned int get_seed()
{
	ADCA.CTRLB|=ADC_CURRLIMIT1_bm|ADC_CONMODE_bm; //medium current consumption, maximum sampling speed 150ksps, resolution 12-bit right adjusted, signed mode
    1d0e:	e0 e0       	ldi	r30, 0x00	; 0
    1d10:	f2 e0       	ldi	r31, 0x02	; 2
    1d12:	81 81       	ldd	r24, Z+1	; 0x01
    1d14:	80 65       	ori	r24, 0x50	; 80
    1d16:	81 83       	std	Z+1, r24	; 0x01
	
	ADCA.REFCTRL|=ADC_REFSEL0_bm; //INTVCC2 i.e. Vcc/1.6 is selected as reference voltage
    1d18:	82 81       	ldd	r24, Z+2	; 0x02
    1d1a:	80 61       	ori	r24, 0x10	; 16
    1d1c:	82 83       	std	Z+2, r24	; 0x02
	
	ADCA.EVCTRL=0x00;               //no event channel input is selected
    1d1e:	13 82       	std	Z+3, r1	; 0x03
	
	ADCA.PRESCALER|=ADC_PRESCALER2_bm; //prescaler 64 is selected and peripheral clock is 8MHz
    1d20:	84 81       	ldd	r24, Z+4	; 0x04
    1d22:	84 60       	ori	r24, 0x04	; 4
    1d24:	84 83       	std	Z+4, r24	; 0x04
	
	ADCA.INTFLAGS=ADC_CH0IF_bm; //clear interrupt flag by writing one to it
    1d26:	81 e0       	ldi	r24, 0x01	; 1
    1d28:	86 83       	std	Z+6, r24	; 0x06
	
	ADCA.CH0.CTRL|=ADC_CH_INPUTMODE0_bm; //signed mode, single ended positive input selected
    1d2a:	80 a1       	ldd	r24, Z+32	; 0x20
    1d2c:	81 60       	ori	r24, 0x01	; 1
    1d2e:	80 a3       	std	Z+32, r24	; 0x20
	
	ADCA.CH0.MUXCTRL|=ADC_CH_MUXPOS1_bm; //select PIN1 as input for ADC
    1d30:	81 a1       	ldd	r24, Z+33	; 0x21
    1d32:	80 61       	ori	r24, 0x10	; 16
    1d34:	81 a3       	std	Z+33, r24	; 0x21
	
	ADCA.CTRLA=ADC_ENABLE_bm | ADC_START_bm; //enable ADC and start
    1d36:	85 e0       	ldi	r24, 0x05	; 5
    1d38:	80 83       	st	Z, r24
	
	while(!(ADCA.INTFLAGS & ADC_CH0IF_bm));
    1d3a:	80 91 06 02 	lds	r24, 0x0206	; 0x800206 <__TEXT_REGION_LENGTH__+0x7fb206>
    1d3e:	80 ff       	sbrs	r24, 0
    1d40:	fc cf       	rjmp	.-8      	; 0x1d3a <get_seed+0x2c>
	
	ADCA.INTFLAGS=ADC_CH0IF_bm;  //clear flag immediately after conversion
    1d42:	e0 e0       	ldi	r30, 0x00	; 0
    1d44:	f2 e0       	ldi	r31, 0x02	; 2
    1d46:	81 e0       	ldi	r24, 0x01	; 1
    1d48:	86 83       	std	Z+6, r24	; 0x06
	
	unsigned int result = ADCA.CH0.RES;
    1d4a:	84 a1       	ldd	r24, Z+36	; 0x24
    1d4c:	95 a1       	ldd	r25, Z+37	; 0x25
	
	ADCA.CTRLA = 0;
    1d4e:	10 82       	st	Z, r1
	return result;
    1d50:	08 95       	ret

00001d52 <beat_timer_C4_init>:
void (*play_once_callback_ptr)() = 0;

void beat_timer_C4_init(uint16_t per)
{
	//for 136 BMP and 1/16 note support, 64 prescl and 13787 clk
	TCC4.CTRLB = TC_BYTEM_NORMAL_gc | TC_CIRCEN_DISABLE_gc | TC_WGMODE_NORMAL_gc;
    1d52:	e0 e0       	ldi	r30, 0x00	; 0
    1d54:	f8 e0       	ldi	r31, 0x08	; 8
    1d56:	11 82       	std	Z+1, r1	; 0x01
	TCC4.CTRLE = 0;
    1d58:	14 82       	std	Z+4, r1	; 0x04
	TCC4.INTCTRLA = TC_OVFINTLVL_HI_gc;
    1d5a:	23 e0       	ldi	r18, 0x03	; 3
    1d5c:	26 83       	std	Z+6, r18	; 0x06
	TCC4.CTRLA = 0;
    1d5e:	10 82       	st	Z, r1
	TCC4.PER = per;
    1d60:	86 a3       	std	Z+38, r24	; 0x26
    1d62:	97 a3       	std	Z+39, r25	; 0x27
    1d64:	08 95       	ret

00001d66 <note_0_timer_C5_init>:

//Channel 0 Counter
void note_0_timer_C5_init()
{

	TCC5.CTRLB = TC_BYTEM_NORMAL_gc | TC_CIRCEN_DISABLE_gc | TC_WGMODE_FRQ_gc;
    1d66:	e0 e4       	ldi	r30, 0x40	; 64
    1d68:	f8 e0       	ldi	r31, 0x08	; 8
    1d6a:	81 e0       	ldi	r24, 0x01	; 1
    1d6c:	81 83       	std	Z+1, r24	; 0x01
	TCC5.CTRLE = TC_CCAMODE_COMP_gc; 
    1d6e:	84 83       	std	Z+4, r24	; 0x04
	TCC5.CTRLA = TC_CLKSEL_DIV8_gc;
    1d70:	84 e0       	ldi	r24, 0x04	; 4
    1d72:	80 83       	st	Z, r24
    1d74:	08 95       	ret

00001d76 <note_1_timer_D5_init>:

//Channel 1 Counter
void note_1_timer_D5_init()
{
	
	TCD5.CTRLB = TC_BYTEM_NORMAL_gc | TC_CIRCEN_DISABLE_gc | TC_WGMODE_FRQ_gc;
    1d76:	e0 e4       	ldi	r30, 0x40	; 64
    1d78:	f9 e0       	ldi	r31, 0x09	; 9
    1d7a:	81 e0       	ldi	r24, 0x01	; 1
    1d7c:	81 83       	std	Z+1, r24	; 0x01
	TCD5.CTRLE = TC_CCAMODE_COMP_gc;
    1d7e:	84 83       	std	Z+4, r24	; 0x04
	TCD5.CTRLA = TC_CLKSEL_DIV8_gc;
    1d80:	84 e0       	ldi	r24, 0x04	; 4
    1d82:	80 83       	st	Z, r24
    1d84:	08 95       	ret

00001d86 <set_note_and_beat>:
}

//Returns the clock count of the note, sets the beat counter for the note, and updates the indexes
uint16_t set_note_and_beat(uint8_t * noteBeatCountPtr, uint8_t * notesPtr, uint8_t * noteExtPtr, uint16_t * noteIndexPtr, uint16_t * noteExtIndexPtr, uint8_t * extBitPosPtr)
{
    1d86:	cf 92       	push	r12
    1d88:	df 92       	push	r13
    1d8a:	ef 92       	push	r14
    1d8c:	ff 92       	push	r15
    1d8e:	0f 93       	push	r16
    1d90:	1f 93       	push	r17
    1d92:	cf 93       	push	r28
    1d94:	df 93       	push	r29
    1d96:	6c 01       	movw	r12, r24
    1d98:	e9 01       	movw	r28, r18
    1d9a:	d7 01       	movw	r26, r14
	*noteBeatCountPtr = 0x01;
    1d9c:	81 e0       	ldi	r24, 0x01	; 1
    1d9e:	f6 01       	movw	r30, r12
    1da0:	80 83       	st	Z, r24
	uint8_t noteVal = notesPtr[*noteIndexPtr];
    1da2:	88 81       	ld	r24, Y
    1da4:	99 81       	ldd	r25, Y+1	; 0x01
    1da6:	68 0f       	add	r22, r24
    1da8:	79 1f       	adc	r23, r25
    1daa:	fb 01       	movw	r30, r22
    1dac:	90 81       	ld	r25, Z
	uint8_t beats = *noteBeatCountPtr;
	beats <<= (noteVal >> 6);
    1dae:	89 2f       	mov	r24, r25
    1db0:	82 95       	swap	r24
    1db2:	86 95       	lsr	r24
    1db4:	86 95       	lsr	r24
    1db6:	83 70       	andi	r24, 0x03	; 3
    1db8:	61 e0       	ldi	r22, 0x01	; 1
    1dba:	70 e0       	ldi	r23, 0x00	; 0
    1dbc:	02 c0       	rjmp	.+4      	; 0x1dc2 <set_note_and_beat+0x3c>
    1dbe:	66 0f       	add	r22, r22
    1dc0:	77 1f       	adc	r23, r23
    1dc2:	8a 95       	dec	r24
    1dc4:	e2 f7       	brpl	.-8      	; 0x1dbe <set_note_and_beat+0x38>
	beats -= 1; //This will turn 0b0010 into 0b0001 or 0b0100 into 0b0011. A cheap way of doing a power of 2
    1dc6:	61 50       	subi	r22, 0x01	; 1
	
	//0b00000001 << 3 = 0b00001000. 0b00001000 - 1 = 0b00000111
	//when we count down the number of 1/16 beats the note will be played for it will always play 1 1/16,
	//then decrement the beat counter until it reaches 0. So, a beat of 7 will play 8 beats, or a half note
	uint8_t extByte = noteExtPtr[*noteExtIndexPtr];
    1dc8:	f8 01       	movw	r30, r16
    1dca:	20 81       	ld	r18, Z
    1dcc:	31 81       	ldd	r19, Z+1	; 0x01
    1dce:	42 0f       	add	r20, r18
    1dd0:	53 1f       	adc	r21, r19
    1dd2:	fa 01       	movw	r30, r20
    1dd4:	20 81       	ld	r18, Z
	if ((extByte >> (*extBitPosPtr)) & 0x01) //if the extension bit is set then this is a whole note
    1dd6:	30 e0       	ldi	r19, 0x00	; 0
    1dd8:	0c 90       	ld	r0, X
    1dda:	02 c0       	rjmp	.+4      	; 0x1de0 <set_note_and_beat+0x5a>
    1ddc:	35 95       	asr	r19
    1dde:	27 95       	ror	r18
    1de0:	0a 94       	dec	r0
    1de2:	e2 f7       	brpl	.-8      	; 0x1ddc <set_note_and_beat+0x56>
    1de4:	20 fd       	sbrc	r18, 0
	{
		beats = 0x0F;
    1de6:	6f e0       	ldi	r22, 0x0F	; 15
	}
	*noteBeatCountPtr = beats;
    1de8:	f6 01       	movw	r30, r12
    1dea:	60 83       	st	Z, r22
	//Get the counts from the note as an index
	uint16_t index = noteVal & 0x3F;
    1dec:	9f 73       	andi	r25, 0x3F	; 63
    1dee:	89 2f       	mov	r24, r25
    1df0:	90 e0       	ldi	r25, 0x00	; 0
	uint16_t count = 0;
	if (index > 0)
    1df2:	00 97       	sbiw	r24, 0x00	; 0
    1df4:	51 f0       	breq	.+20     	; 0x1e0a <set_note_and_beat+0x84>
	{
		count = noteClocks[index] / 2;
    1df6:	88 0f       	add	r24, r24
    1df8:	99 1f       	adc	r25, r25
    1dfa:	fc 01       	movw	r30, r24
    1dfc:	e1 5e       	subi	r30, 0xE1	; 225
    1dfe:	fe 4d       	sbci	r31, 0xDE	; 222
    1e00:	40 81       	ld	r20, Z
    1e02:	51 81       	ldd	r21, Z+1	; 0x01
    1e04:	56 95       	lsr	r21
    1e06:	47 95       	ror	r20
    1e08:	02 c0       	rjmp	.+4      	; 0x1e0e <set_note_and_beat+0x88>
		beats = 0x0F;
	}
	*noteBeatCountPtr = beats;
	//Get the counts from the note as an index
	uint16_t index = noteVal & 0x3F;
	uint16_t count = 0;
    1e0a:	40 e0       	ldi	r20, 0x00	; 0
    1e0c:	50 e0       	ldi	r21, 0x00	; 0
		count = noteClocks[index] / 2;
	}
	
	
	//Increment the note index and the bit pos of the ext
	(*noteIndexPtr)++;
    1e0e:	28 81       	ld	r18, Y
    1e10:	39 81       	ldd	r19, Y+1	; 0x01
    1e12:	2f 5f       	subi	r18, 0xFF	; 255
    1e14:	3f 4f       	sbci	r19, 0xFF	; 255
    1e16:	28 83       	st	Y, r18
    1e18:	39 83       	std	Y+1, r19	; 0x01
	(*extBitPosPtr)++;
    1e1a:	9c 91       	ld	r25, X
    1e1c:	9f 5f       	subi	r25, 0xFF	; 255
    1e1e:	9c 93       	st	X, r25
	
	//If we have maxed out the bit pos, move to the next ext byte
	if (*extBitPosPtr == 8)
    1e20:	98 30       	cpi	r25, 0x08	; 8
    1e22:	39 f4       	brne	.+14     	; 0x1e32 <set_note_and_beat+0xac>
	{
		*extBitPosPtr = 0;
    1e24:	1c 92       	st	X, r1
		(*noteExtIndexPtr)++;
    1e26:	f8 01       	movw	r30, r16
    1e28:	80 81       	ld	r24, Z
    1e2a:	91 81       	ldd	r25, Z+1	; 0x01
    1e2c:	01 96       	adiw	r24, 0x01	; 1
    1e2e:	80 83       	st	Z, r24
    1e30:	91 83       	std	Z+1, r25	; 0x01
	}
	
	return count;
	
}
    1e32:	ca 01       	movw	r24, r20
    1e34:	df 91       	pop	r29
    1e36:	cf 91       	pop	r28
    1e38:	1f 91       	pop	r17
    1e3a:	0f 91       	pop	r16
    1e3c:	ff 90       	pop	r15
    1e3e:	ef 90       	pop	r14
    1e40:	df 90       	pop	r13
    1e42:	cf 90       	pop	r12
    1e44:	08 95       	ret

00001e46 <set_ch0_note_and_beat>:


//Uses the current note indexes for treble
void set_ch0_note_and_beat()
{
    1e46:	ef 92       	push	r14
    1e48:	ff 92       	push	r15
    1e4a:	0f 93       	push	r16
    1e4c:	1f 93       	push	r17
	//The note number is the first 6 bits of the byte for that note and represents the index into the note clocks
	TCC5.CCA = set_note_and_beat(&noteCh0BeatCount, ch0Track, ch0Ext, &noteCh0Index, &noteCh0ExtIndex, &noteCh0ExtBitPos);
    1e4e:	40 91 94 22 	lds	r20, 0x2294	; 0x802294 <ch0Ext>
    1e52:	50 91 95 22 	lds	r21, 0x2295	; 0x802295 <ch0Ext+0x1>
    1e56:	60 91 a6 22 	lds	r22, 0x22A6	; 0x8022a6 <ch0Track>
    1e5a:	70 91 a7 22 	lds	r23, 0x22A7	; 0x8022a7 <ch0Track+0x1>
    1e5e:	0f 2e       	mov	r0, r31
    1e60:	f7 ec       	ldi	r31, 0xC7	; 199
    1e62:	ef 2e       	mov	r14, r31
    1e64:	f1 e2       	ldi	r31, 0x21	; 33
    1e66:	ff 2e       	mov	r15, r31
    1e68:	f0 2d       	mov	r31, r0
    1e6a:	08 ec       	ldi	r16, 0xC8	; 200
    1e6c:	11 e2       	ldi	r17, 0x21	; 33
    1e6e:	2a ec       	ldi	r18, 0xCA	; 202
    1e70:	31 e2       	ldi	r19, 0x21	; 33
    1e72:	86 ec       	ldi	r24, 0xC6	; 198
    1e74:	91 e2       	ldi	r25, 0x21	; 33
    1e76:	0e 94 c3 0e 	call	0x1d86	; 0x1d86 <set_note_and_beat>
    1e7a:	80 93 68 08 	sts	0x0868, r24	; 0x800868 <__TEXT_REGION_LENGTH__+0x7fb868>
    1e7e:	90 93 69 08 	sts	0x0869, r25	; 0x800869 <__TEXT_REGION_LENGTH__+0x7fb869>
}
    1e82:	1f 91       	pop	r17
    1e84:	0f 91       	pop	r16
    1e86:	ff 90       	pop	r15
    1e88:	ef 90       	pop	r14
    1e8a:	08 95       	ret

00001e8c <set_ch1_note_and_beat>:

//Uses the current note indexes for Bass
void set_ch1_note_and_beat()
{
    1e8c:	ef 92       	push	r14
    1e8e:	ff 92       	push	r15
    1e90:	0f 93       	push	r16
    1e92:	1f 93       	push	r17
	//The note number is the first 6 bits of the byte for that note and represents the index into the note clocks
	TCD5.CCA = set_note_and_beat(&noteCh1BeatCount, ch1Track, ch1Ext, &noteCh1Index, &noteCh1ExtIndex, &noteCh1ExtBitPos);
    1e94:	40 91 a8 22 	lds	r20, 0x22A8	; 0x8022a8 <ch1Ext>
    1e98:	50 91 a9 22 	lds	r21, 0x22A9	; 0x8022a9 <ch1Ext+0x1>
    1e9c:	60 91 a4 22 	lds	r22, 0x22A4	; 0x8022a4 <ch1Track>
    1ea0:	70 91 a5 22 	lds	r23, 0x22A5	; 0x8022a5 <ch1Track+0x1>
    1ea4:	0f 2e       	mov	r0, r31
    1ea6:	f8 eb       	ldi	r31, 0xB8	; 184
    1ea8:	ef 2e       	mov	r14, r31
    1eaa:	f1 e2       	ldi	r31, 0x21	; 33
    1eac:	ff 2e       	mov	r15, r31
    1eae:	f0 2d       	mov	r31, r0
    1eb0:	09 eb       	ldi	r16, 0xB9	; 185
    1eb2:	11 e2       	ldi	r17, 0x21	; 33
    1eb4:	2b eb       	ldi	r18, 0xBB	; 187
    1eb6:	31 e2       	ldi	r19, 0x21	; 33
    1eb8:	87 eb       	ldi	r24, 0xB7	; 183
    1eba:	91 e2       	ldi	r25, 0x21	; 33
    1ebc:	0e 94 c3 0e 	call	0x1d86	; 0x1d86 <set_note_and_beat>
    1ec0:	80 93 68 09 	sts	0x0968, r24	; 0x800968 <__TEXT_REGION_LENGTH__+0x7fb968>
    1ec4:	90 93 69 09 	sts	0x0969, r25	; 0x800969 <__TEXT_REGION_LENGTH__+0x7fb969>
}
    1ec8:	1f 91       	pop	r17
    1eca:	0f 91       	pop	r16
    1ecc:	ff 90       	pop	r15
    1ece:	ef 90       	pop	r14
    1ed0:	08 95       	ret

00001ed2 <song_init>:

void song_init()
{
	if (hasCh0Intro)
    1ed2:	80 91 cd 21 	lds	r24, 0x21CD	; 0x8021cd <hasCh0Intro>
    1ed6:	88 23       	and	r24, r24
    1ed8:	99 f0       	breq	.+38     	; 0x1f00 <song_init+0x2e>
	{
		isCh0Intro = 1;
    1eda:	91 e0       	ldi	r25, 0x01	; 1
    1edc:	90 93 bf 21 	sts	0x21BF, r25	; 0x8021bf <isCh0Intro>
		ch0Track = ch0IntroTrack;
    1ee0:	20 91 98 22 	lds	r18, 0x2298	; 0x802298 <ch0IntroTrack>
    1ee4:	30 91 99 22 	lds	r19, 0x2299	; 0x802299 <ch0IntroTrack+0x1>
    1ee8:	20 93 a6 22 	sts	0x22A6, r18	; 0x8022a6 <ch0Track>
    1eec:	30 93 a7 22 	sts	0x22A7, r19	; 0x8022a7 <ch0Track+0x1>
		ch0Ext = ch0IntroExt;
    1ef0:	20 91 9e 22 	lds	r18, 0x229E	; 0x80229e <ch0IntroExt>
    1ef4:	30 91 9f 22 	lds	r19, 0x229F	; 0x80229f <ch0IntroExt+0x1>
    1ef8:	20 93 94 22 	sts	0x2294, r18	; 0x802294 <ch0Ext>
    1efc:	30 93 95 22 	sts	0x2295, r19	; 0x802295 <ch0Ext+0x1>
	}

	if (!(hasCh0Intro) && hasCh0Main)
    1f00:	81 11       	cpse	r24, r1
    1f02:	16 c0       	rjmp	.+44     	; 0x1f30 <song_init+0x5e>
    1f04:	90 91 cc 21 	lds	r25, 0x21CC	; 0x8021cc <hasCh0Main>
    1f08:	99 23       	and	r25, r25
    1f0a:	91 f0       	breq	.+36     	; 0x1f30 <song_init+0x5e>
	{
		isCh0Intro = 0;
    1f0c:	10 92 bf 21 	sts	0x21BF, r1	; 0x8021bf <isCh0Intro>
		ch0Track = ch0MainTrack;
    1f10:	20 91 96 22 	lds	r18, 0x2296	; 0x802296 <ch0MainTrack>
    1f14:	30 91 97 22 	lds	r19, 0x2297	; 0x802297 <ch0MainTrack+0x1>
    1f18:	20 93 a6 22 	sts	0x22A6, r18	; 0x8022a6 <ch0Track>
    1f1c:	30 93 a7 22 	sts	0x22A7, r19	; 0x8022a7 <ch0Track+0x1>
		ch0Ext = ch0MainExt;
    1f20:	20 91 92 22 	lds	r18, 0x2292	; 0x802292 <ch0MainExt>
    1f24:	30 91 93 22 	lds	r19, 0x2293	; 0x802293 <ch0MainExt+0x1>
    1f28:	20 93 94 22 	sts	0x2294, r18	; 0x802294 <ch0Ext>
    1f2c:	30 93 95 22 	sts	0x2295, r19	; 0x802295 <ch0Ext+0x1>
	}

	noteCh0BeatCount = 0;
    1f30:	10 92 c6 21 	sts	0x21C6, r1	; 0x8021c6 <noteCh0BeatCount>
	noteCh0Index = 0;
    1f34:	10 92 ca 21 	sts	0x21CA, r1	; 0x8021ca <noteCh0Index>
    1f38:	10 92 cb 21 	sts	0x21CB, r1	; 0x8021cb <noteCh0Index+0x1>
	noteCh0ExtIndex = 0;
    1f3c:	10 92 c8 21 	sts	0x21C8, r1	; 0x8021c8 <noteCh0ExtIndex>
    1f40:	10 92 c9 21 	sts	0x21C9, r1	; 0x8021c9 <noteCh0ExtIndex+0x1>
	noteCh0ExtBitPos = 0;
    1f44:	10 92 c7 21 	sts	0x21C7, r1	; 0x8021c7 <noteCh0ExtBitPos>
	
	if (hasCh1Intro)
    1f48:	90 91 be 21 	lds	r25, 0x21BE	; 0x8021be <hasCh1Intro>
    1f4c:	99 23       	and	r25, r25
    1f4e:	99 f0       	breq	.+38     	; 0x1f76 <song_init+0xa4>
	{
		isCh1Intro = 1;
    1f50:	21 e0       	ldi	r18, 0x01	; 1
    1f52:	20 93 b0 21 	sts	0x21B0, r18	; 0x8021b0 <isCh1Intro>
		ch1Track = ch1IntroTrack;
    1f56:	20 91 a2 22 	lds	r18, 0x22A2	; 0x8022a2 <ch1IntroTrack>
    1f5a:	30 91 a3 22 	lds	r19, 0x22A3	; 0x8022a3 <ch1IntroTrack+0x1>
    1f5e:	20 93 a4 22 	sts	0x22A4, r18	; 0x8022a4 <ch1Track>
    1f62:	30 93 a5 22 	sts	0x22A5, r19	; 0x8022a5 <ch1Track+0x1>
		ch1Ext = ch1IntroExt;
    1f66:	20 91 90 22 	lds	r18, 0x2290	; 0x802290 <ch1IntroExt>
    1f6a:	30 91 91 22 	lds	r19, 0x2291	; 0x802291 <ch1IntroExt+0x1>
    1f6e:	20 93 a8 22 	sts	0x22A8, r18	; 0x8022a8 <ch1Ext>
    1f72:	30 93 a9 22 	sts	0x22A9, r19	; 0x8022a9 <ch1Ext+0x1>
	}

	if (!(hasCh1Intro) && hasCh1Main)
    1f76:	91 11       	cpse	r25, r1
    1f78:	16 c0       	rjmp	.+44     	; 0x1fa6 <song_init+0xd4>
    1f7a:	90 91 bd 21 	lds	r25, 0x21BD	; 0x8021bd <hasCh1Main>
    1f7e:	99 23       	and	r25, r25
    1f80:	91 f0       	breq	.+36     	; 0x1fa6 <song_init+0xd4>
	{
		isCh1Intro = 0;
    1f82:	10 92 b0 21 	sts	0x21B0, r1	; 0x8021b0 <isCh1Intro>
		ch1Track = ch1MainTrack;
    1f86:	20 91 a0 22 	lds	r18, 0x22A0	; 0x8022a0 <ch1MainTrack>
    1f8a:	30 91 a1 22 	lds	r19, 0x22A1	; 0x8022a1 <ch1MainTrack+0x1>
    1f8e:	20 93 a4 22 	sts	0x22A4, r18	; 0x8022a4 <ch1Track>
    1f92:	30 93 a5 22 	sts	0x22A5, r19	; 0x8022a5 <ch1Track+0x1>
		ch1Ext = ch1MainExt;
    1f96:	20 91 9a 22 	lds	r18, 0x229A	; 0x80229a <ch1MainExt>
    1f9a:	30 91 9b 22 	lds	r19, 0x229B	; 0x80229b <ch1MainExt+0x1>
    1f9e:	20 93 a8 22 	sts	0x22A8, r18	; 0x8022a8 <ch1Ext>
    1fa2:	30 93 a9 22 	sts	0x22A9, r19	; 0x8022a9 <ch1Ext+0x1>
	}

	noteCh1BeatCount = 0;
    1fa6:	10 92 b7 21 	sts	0x21B7, r1	; 0x8021b7 <noteCh1BeatCount>
	noteCh1Index = 0;
    1faa:	10 92 bb 21 	sts	0x21BB, r1	; 0x8021bb <noteCh1Index>
    1fae:	10 92 bc 21 	sts	0x21BC, r1	; 0x8021bc <noteCh1Index+0x1>
	noteCh1ExtIndex = 0;
    1fb2:	10 92 b9 21 	sts	0x21B9, r1	; 0x8021b9 <noteCh1ExtIndex>
    1fb6:	10 92 ba 21 	sts	0x21BA, r1	; 0x8021ba <noteCh1ExtIndex+0x1>
	noteCh1ExtBitPos = 0;
    1fba:	10 92 b8 21 	sts	0x21B8, r1	; 0x8021b8 <noteCh1ExtBitPos>
	
	if (hasCh0Intro || hasCh0Main)
    1fbe:	81 11       	cpse	r24, r1
    1fc0:	03 c0       	rjmp	.+6      	; 0x1fc8 <song_init+0xf6>
    1fc2:	80 91 cc 21 	lds	r24, 0x21CC	; 0x8021cc <hasCh0Main>
    1fc6:	81 11       	cpse	r24, r1
	{
		set_ch0_note_and_beat();
    1fc8:	0e 94 23 0f 	call	0x1e46	; 0x1e46 <set_ch0_note_and_beat>
	}
	
	if (hasCh1Intro || hasCh1Main)
    1fcc:	80 91 be 21 	lds	r24, 0x21BE	; 0x8021be <hasCh1Intro>
    1fd0:	81 11       	cpse	r24, r1
    1fd2:	03 c0       	rjmp	.+6      	; 0x1fda <song_init+0x108>
    1fd4:	80 91 bd 21 	lds	r24, 0x21BD	; 0x8021bd <hasCh1Main>
    1fd8:	81 11       	cpse	r24, r1
	{
		set_ch1_note_and_beat();
    1fda:	0e 94 46 0f 	call	0x1e8c	; 0x1e8c <set_ch1_note_and_beat>
    1fde:	08 95       	ret

00001fe0 <load_track_into_mem>:
	}
	
}

void load_track_into_mem(uint8_t * source, uint8_t ** dest, uint16_t size)
{
    1fe0:	cf 92       	push	r12
    1fe2:	df 92       	push	r13
    1fe4:	ef 92       	push	r14
    1fe6:	ff 92       	push	r15
    1fe8:	0f 93       	push	r16
    1fea:	1f 93       	push	r17
    1fec:	cf 93       	push	r28
    1fee:	df 93       	push	r29
    1ff0:	1f 92       	push	r1
    1ff2:	cd b7       	in	r28, 0x3d	; 61
    1ff4:	de b7       	in	r29, 0x3e	; 62
    1ff6:	6c 01       	movw	r12, r24
    1ff8:	7b 01       	movw	r14, r22
    1ffa:	8a 01       	movw	r16, r20
	*dest = (uint8_t *)malloc(size);
    1ffc:	ca 01       	movw	r24, r20
    1ffe:	0e 94 90 12 	call	0x2520	; 0x2520 <malloc>
    2002:	d7 01       	movw	r26, r14
    2004:	8d 93       	st	X+, r24
    2006:	9c 93       	st	X, r25
	volatile uint8_t temp;
	uint16_t i = 0;
    2008:	80 e0       	ldi	r24, 0x00	; 0
    200a:	90 e0       	ldi	r25, 0x00	; 0
	for(;i<size;i++)
    200c:	0d c0       	rjmp	.+26     	; 0x2028 <load_track_into_mem+0x48>
	{
		temp =pgm_read_byte(source + i);
    200e:	f6 01       	movw	r30, r12
    2010:	e8 0f       	add	r30, r24
    2012:	f9 1f       	adc	r31, r25
    2014:	e4 91       	lpm	r30, Z
    2016:	e9 83       	std	Y+1, r30	; 0x01
		(*dest)[i] = temp;
    2018:	d7 01       	movw	r26, r14
    201a:	ed 91       	ld	r30, X+
    201c:	fc 91       	ld	r31, X
    201e:	e8 0f       	add	r30, r24
    2020:	f9 1f       	adc	r31, r25
    2022:	29 81       	ldd	r18, Y+1	; 0x01
    2024:	20 83       	st	Z, r18
void load_track_into_mem(uint8_t * source, uint8_t ** dest, uint16_t size)
{
	*dest = (uint8_t *)malloc(size);
	volatile uint8_t temp;
	uint16_t i = 0;
	for(;i<size;i++)
    2026:	01 96       	adiw	r24, 0x01	; 1
    2028:	80 17       	cp	r24, r16
    202a:	91 07       	cpc	r25, r17
    202c:	80 f3       	brcs	.-32     	; 0x200e <load_track_into_mem+0x2e>
	{
		temp =pgm_read_byte(source + i);
		(*dest)[i] = temp;
	}
}
    202e:	0f 90       	pop	r0
    2030:	df 91       	pop	r29
    2032:	cf 91       	pop	r28
    2034:	1f 91       	pop	r17
    2036:	0f 91       	pop	r16
    2038:	ff 90       	pop	r15
    203a:	ef 90       	pop	r14
    203c:	df 90       	pop	r13
    203e:	cf 90       	pop	r12
    2040:	08 95       	ret

00002042 <song_player_init>:

void song_player_init(SongInitParams initParams, void (*update_display_cb)())
{
    2042:	0f 93       	push	r16
    2044:	1f 93       	push	r17
    2046:	cf 93       	push	r28
    2048:	df 93       	push	r29
    204a:	cd b7       	in	r28, 0x3d	; 61
    204c:	de b7       	in	r29, 0x3e	; 62
	update_display_callback_ptr = update_display_cb;
    204e:	89 a5       	ldd	r24, Y+41	; 0x29
    2050:	9a a5       	ldd	r25, Y+42	; 0x2a
    2052:	80 93 9c 22 	sts	0x229C, r24	; 0x80229c <update_display_callback_ptr>
    2056:	90 93 9d 22 	sts	0x229D, r25	; 0x80229d <update_display_callback_ptr+0x1>
	
	beat_timer_C4_init(initParams.bmp_period);
    205a:	8f a1       	ldd	r24, Y+39	; 0x27
    205c:	98 a5       	ldd	r25, Y+40	; 0x28
    205e:	0e 94 a9 0e 	call	0x1d52	; 0x1d52 <beat_timer_C4_init>
	note_0_timer_C5_init();
    2062:	0e 94 b3 0e 	call	0x1d66	; 0x1d66 <note_0_timer_C5_init>
	note_1_timer_D5_init();	
    2066:	0e 94 bb 0e 	call	0x1d76	; 0x1d76 <note_1_timer_D5_init>
	
	if (initParams.ch0.main.track_data)
    206a:	8f 85       	ldd	r24, Y+15	; 0x0f
    206c:	98 89       	ldd	r25, Y+16	; 0x10
    206e:	00 97       	sbiw	r24, 0x00	; 0
    2070:	d1 f0       	breq	.+52     	; 0x20a6 <song_player_init+0x64>
	{
		hasCh0Main = 1;
    2072:	21 e0       	ldi	r18, 0x01	; 1
    2074:	20 93 cc 21 	sts	0x21CC, r18	; 0x8021cc <hasCh0Main>
		load_track_into_mem(initParams.ch0.main.track_data, &ch0MainTrack, initParams.ch0.main.track_size);
    2078:	09 89       	ldd	r16, Y+17	; 0x11
    207a:	1a 89       	ldd	r17, Y+18	; 0x12
    207c:	a8 01       	movw	r20, r16
    207e:	66 e9       	ldi	r22, 0x96	; 150
    2080:	72 e2       	ldi	r23, 0x22	; 34
    2082:	0e 94 f0 0f 	call	0x1fe0	; 0x1fe0 <load_track_into_mem>
		load_track_into_mem(initParams.ch0.main.extension_data, &ch0MainExt, initParams.ch0.main.extension_size);
    2086:	4d 89       	ldd	r20, Y+21	; 0x15
    2088:	5e 89       	ldd	r21, Y+22	; 0x16
    208a:	62 e9       	ldi	r22, 0x92	; 146
    208c:	72 e2       	ldi	r23, 0x22	; 34
    208e:	8b 89       	ldd	r24, Y+19	; 0x13
    2090:	9c 89       	ldd	r25, Y+20	; 0x14
    2092:	0e 94 f0 0f 	call	0x1fe0	; 0x1fe0 <load_track_into_mem>
		ch0MainNoteCount = initParams.ch0.main.track_size;
    2096:	00 93 c2 21 	sts	0x21C2, r16	; 0x8021c2 <ch0MainNoteCount>
    209a:	10 93 c3 21 	sts	0x21C3, r17	; 0x8021c3 <ch0MainNoteCount+0x1>
		ch0NoteCount = ch0MainNoteCount;
    209e:	00 93 c0 21 	sts	0x21C0, r16	; 0x8021c0 <ch0NoteCount>
    20a2:	10 93 c1 21 	sts	0x21C1, r17	; 0x8021c1 <ch0NoteCount+0x1>
	
	//Note: Checking the main track stuff first so that we can set values here that can be overwritten if intro track
	//information is present without the need for more conditionals	
	
	//First copy over data from progmem
	if (initParams.ch0.intro.track_data)
    20a6:	8f 81       	ldd	r24, Y+7	; 0x07
    20a8:	98 85       	ldd	r25, Y+8	; 0x08
    20aa:	00 97       	sbiw	r24, 0x00	; 0
    20ac:	d1 f0       	breq	.+52     	; 0x20e2 <song_player_init+0xa0>
	{
		hasCh0Intro = 1;
    20ae:	21 e0       	ldi	r18, 0x01	; 1
    20b0:	20 93 cd 21 	sts	0x21CD, r18	; 0x8021cd <hasCh0Intro>
		load_track_into_mem(initParams.ch0.intro.track_data, &ch0IntroTrack, initParams.ch0.intro.track_size);
    20b4:	09 85       	ldd	r16, Y+9	; 0x09
    20b6:	1a 85       	ldd	r17, Y+10	; 0x0a
    20b8:	a8 01       	movw	r20, r16
    20ba:	68 e9       	ldi	r22, 0x98	; 152
    20bc:	72 e2       	ldi	r23, 0x22	; 34
    20be:	0e 94 f0 0f 	call	0x1fe0	; 0x1fe0 <load_track_into_mem>
		load_track_into_mem(initParams.ch0.intro.extension_data, &ch0IntroExt, initParams.ch0.intro.extension_size);
    20c2:	4d 85       	ldd	r20, Y+13	; 0x0d
    20c4:	5e 85       	ldd	r21, Y+14	; 0x0e
    20c6:	6e e9       	ldi	r22, 0x9E	; 158
    20c8:	72 e2       	ldi	r23, 0x22	; 34
    20ca:	8b 85       	ldd	r24, Y+11	; 0x0b
    20cc:	9c 85       	ldd	r25, Y+12	; 0x0c
    20ce:	0e 94 f0 0f 	call	0x1fe0	; 0x1fe0 <load_track_into_mem>
		ch0IntroNoteCount = initParams.ch0.intro.track_size;		
    20d2:	00 93 c4 21 	sts	0x21C4, r16	; 0x8021c4 <ch0IntroNoteCount>
    20d6:	10 93 c5 21 	sts	0x21C5, r17	; 0x8021c5 <ch0IntroNoteCount+0x1>
		ch0NoteCount = ch0IntroNoteCount;
    20da:	00 93 c0 21 	sts	0x21C0, r16	; 0x8021c0 <ch0NoteCount>
    20de:	10 93 c1 21 	sts	0x21C1, r17	; 0x8021c1 <ch0NoteCount+0x1>
	}
	
	if (initParams.ch1.main.track_data)
    20e2:	8f 8d       	ldd	r24, Y+31	; 0x1f
    20e4:	98 a1       	ldd	r25, Y+32	; 0x20
    20e6:	00 97       	sbiw	r24, 0x00	; 0
    20e8:	d1 f0       	breq	.+52     	; 0x211e <song_player_init+0xdc>
	{
		hasCh1Main = 1;
    20ea:	21 e0       	ldi	r18, 0x01	; 1
    20ec:	20 93 bd 21 	sts	0x21BD, r18	; 0x8021bd <hasCh1Main>
		load_track_into_mem(initParams.ch1.main.track_data, &ch1MainTrack, initParams.ch1.main.track_size);
    20f0:	09 a1       	ldd	r16, Y+33	; 0x21
    20f2:	1a a1       	ldd	r17, Y+34	; 0x22
    20f4:	a8 01       	movw	r20, r16
    20f6:	60 ea       	ldi	r22, 0xA0	; 160
    20f8:	72 e2       	ldi	r23, 0x22	; 34
    20fa:	0e 94 f0 0f 	call	0x1fe0	; 0x1fe0 <load_track_into_mem>
		load_track_into_mem(initParams.ch1.main.extension_data, &ch1MainExt, initParams.ch1.main.extension_size);
    20fe:	4d a1       	ldd	r20, Y+37	; 0x25
    2100:	5e a1       	ldd	r21, Y+38	; 0x26
    2102:	6a e9       	ldi	r22, 0x9A	; 154
    2104:	72 e2       	ldi	r23, 0x22	; 34
    2106:	8b a1       	ldd	r24, Y+35	; 0x23
    2108:	9c a1       	ldd	r25, Y+36	; 0x24
    210a:	0e 94 f0 0f 	call	0x1fe0	; 0x1fe0 <load_track_into_mem>
		ch1MainNoteCount = initParams.ch1.main.track_size;
    210e:	00 93 b3 21 	sts	0x21B3, r16	; 0x8021b3 <ch1MainNoteCount>
    2112:	10 93 b4 21 	sts	0x21B4, r17	; 0x8021b4 <ch1MainNoteCount+0x1>
		ch1NoteCount = ch1MainNoteCount;
    2116:	00 93 b1 21 	sts	0x21B1, r16	; 0x8021b1 <ch1NoteCount>
    211a:	10 93 b2 21 	sts	0x21B2, r17	; 0x8021b2 <ch1NoteCount+0x1>
	}
	
	if (initParams.ch1.intro.track_data)
    211e:	8f 89       	ldd	r24, Y+23	; 0x17
    2120:	98 8d       	ldd	r25, Y+24	; 0x18
    2122:	00 97       	sbiw	r24, 0x00	; 0
    2124:	d1 f0       	breq	.+52     	; 0x215a <song_player_init+0x118>
	{
		hasCh1Intro = 1;
    2126:	21 e0       	ldi	r18, 0x01	; 1
    2128:	20 93 be 21 	sts	0x21BE, r18	; 0x8021be <hasCh1Intro>
		load_track_into_mem(initParams.ch1.intro.track_data, &ch1IntroTrack, initParams.ch1.intro.track_size);
    212c:	09 8d       	ldd	r16, Y+25	; 0x19
    212e:	1a 8d       	ldd	r17, Y+26	; 0x1a
    2130:	a8 01       	movw	r20, r16
    2132:	62 ea       	ldi	r22, 0xA2	; 162
    2134:	72 e2       	ldi	r23, 0x22	; 34
    2136:	0e 94 f0 0f 	call	0x1fe0	; 0x1fe0 <load_track_into_mem>
		load_track_into_mem(initParams.ch1.intro.extension_data, &ch1IntroExt, initParams.ch1.intro.extension_size);
    213a:	4d 8d       	ldd	r20, Y+29	; 0x1d
    213c:	5e 8d       	ldd	r21, Y+30	; 0x1e
    213e:	60 e9       	ldi	r22, 0x90	; 144
    2140:	72 e2       	ldi	r23, 0x22	; 34
    2142:	8b 8d       	ldd	r24, Y+27	; 0x1b
    2144:	9c 8d       	ldd	r25, Y+28	; 0x1c
    2146:	0e 94 f0 0f 	call	0x1fe0	; 0x1fe0 <load_track_into_mem>
		ch1IntroNoteCount = initParams.ch1.intro.track_size;		
    214a:	00 93 b5 21 	sts	0x21B5, r16	; 0x8021b5 <ch1IntroNoteCount>
    214e:	10 93 b6 21 	sts	0x21B6, r17	; 0x8021b6 <ch1IntroNoteCount+0x1>
		ch1NoteCount = ch1IntroNoteCount;
    2152:	00 93 b1 21 	sts	0x21B1, r16	; 0x8021b1 <ch1NoteCount>
    2156:	10 93 b2 21 	sts	0x21B2, r17	; 0x8021b2 <ch1NoteCount+0x1>
	}
	
		
	
	song_init();
    215a:	0e 94 69 0f 	call	0x1ed2	; 0x1ed2 <song_init>
}
    215e:	df 91       	pop	r29
    2160:	cf 91       	pop	r28
    2162:	1f 91       	pop	r17
    2164:	0f 91       	pop	r16
    2166:	08 95       	ret

00002168 <song_start>:

void song_start()
{
	TCC4.CTRLA = TC_CLKSEL_DIV256_gc;
    2168:	86 e0       	ldi	r24, 0x06	; 6
    216a:	80 93 00 08 	sts	0x0800, r24	; 0x800800 <__TEXT_REGION_LENGTH__+0x7fb800>
    216e:	08 95       	ret

00002170 <song_play_once>:
}

void song_play_once(void (*callback)())
{
	play_once_callback_ptr = callback;
    2170:	80 93 ae 21 	sts	0x21AE, r24	; 0x8021ae <play_once_callback_ptr>
    2174:	90 93 af 21 	sts	0x21AF, r25	; 0x8021af <play_once_callback_ptr+0x1>
	song_start();	
    2178:	0e 94 b4 10 	call	0x2168	; 0x2168 <song_start>
    217c:	08 95       	ret

0000217e <song_interrupt_handler>:
}

void song_interrupt_handler(){
// 	PORTA.OUTSET = PIN2_bm;
	TCC4.INTFLAGS = TC4_OVFIF_bm;
    217e:	81 e0       	ldi	r24, 0x01	; 1
    2180:	80 93 0c 08 	sts	0x080C, r24	; 0x80080c <__TEXT_REGION_LENGTH__+0x7fb80c>

	if (!(noteCh0BeatCount))
    2184:	80 91 c6 21 	lds	r24, 0x21C6	; 0x8021c6 <noteCh0BeatCount>
    2188:	81 11       	cpse	r24, r1
    218a:	4b c0       	rjmp	.+150    	; 0x2222 <song_interrupt_handler+0xa4>
	{

		
		//First turn off treble counter
		TCC5.CTRLA = 0;
    218c:	e0 e4       	ldi	r30, 0x40	; 64
    218e:	f8 e0       	ldi	r31, 0x08	; 8
    2190:	10 82       	st	Z, r1
		TCC5.CCA = 0;
    2192:	10 a6       	std	Z+40, r1	; 0x28
    2194:	11 a6       	std	Z+41, r1	; 0x29

		if (noteCh0Index >= ch0NoteCount)
    2196:	20 91 ca 21 	lds	r18, 0x21CA	; 0x8021ca <noteCh0Index>
    219a:	30 91 cb 21 	lds	r19, 0x21CB	; 0x8021cb <noteCh0Index+0x1>
    219e:	80 91 c0 21 	lds	r24, 0x21C0	; 0x8021c0 <ch0NoteCount>
    21a2:	90 91 c1 21 	lds	r25, 0x21C1	; 0x8021c1 <ch0NoteCount+0x1>
    21a6:	28 17       	cp	r18, r24
    21a8:	39 07       	cpc	r19, r25
    21aa:	c0 f1       	brcs	.+112    	; 0x221c <song_interrupt_handler+0x9e>
		{
			if (isCh0Intro)// && hasCh0Main)
    21ac:	80 91 bf 21 	lds	r24, 0x21BF	; 0x8021bf <isCh0Intro>
    21b0:	88 23       	and	r24, r24
    21b2:	d9 f0       	breq	.+54     	; 0x21ea <song_interrupt_handler+0x6c>
			{
				isCh0Intro = 0;
    21b4:	10 92 bf 21 	sts	0x21BF, r1	; 0x8021bf <isCh0Intro>
				ch0NoteCount = ch0MainNoteCount;
    21b8:	80 91 c2 21 	lds	r24, 0x21C2	; 0x8021c2 <ch0MainNoteCount>
    21bc:	90 91 c3 21 	lds	r25, 0x21C3	; 0x8021c3 <ch0MainNoteCount+0x1>
    21c0:	80 93 c0 21 	sts	0x21C0, r24	; 0x8021c0 <ch0NoteCount>
    21c4:	90 93 c1 21 	sts	0x21C1, r25	; 0x8021c1 <ch0NoteCount+0x1>
				ch0Track = ch0MainTrack;
    21c8:	80 91 96 22 	lds	r24, 0x2296	; 0x802296 <ch0MainTrack>
    21cc:	90 91 97 22 	lds	r25, 0x2297	; 0x802297 <ch0MainTrack+0x1>
    21d0:	80 93 a6 22 	sts	0x22A6, r24	; 0x8022a6 <ch0Track>
    21d4:	90 93 a7 22 	sts	0x22A7, r25	; 0x8022a7 <ch0Track+0x1>
				ch0Ext = ch0MainExt;
    21d8:	80 91 92 22 	lds	r24, 0x2292	; 0x802292 <ch0MainExt>
    21dc:	90 91 93 22 	lds	r25, 0x2293	; 0x802293 <ch0MainExt+0x1>
    21e0:	80 93 94 22 	sts	0x2294, r24	; 0x802294 <ch0Ext>
    21e4:	90 93 95 22 	sts	0x2295, r25	; 0x802295 <ch0Ext+0x1>
    21e8:	0d c0       	rjmp	.+26     	; 0x2204 <song_interrupt_handler+0x86>
			}
			else if (play_once_callback_ptr)
    21ea:	80 91 ae 21 	lds	r24, 0x21AE	; 0x8021ae <play_once_callback_ptr>
    21ee:	90 91 af 21 	lds	r25, 0x21AF	; 0x8021af <play_once_callback_ptr+0x1>
    21f2:	89 2b       	or	r24, r25
    21f4:	39 f0       	breq	.+14     	; 0x2204 <song_interrupt_handler+0x86>
			{
				TCC4.CTRLA = 0;
    21f6:	10 92 00 08 	sts	0x0800, r1	; 0x800800 <__TEXT_REGION_LENGTH__+0x7fb800>
				play_once_callback_ptr();
    21fa:	e0 91 ae 21 	lds	r30, 0x21AE	; 0x8021ae <play_once_callback_ptr>
    21fe:	f0 91 af 21 	lds	r31, 0x21AF	; 0x8021af <play_once_callback_ptr+0x1>
    2202:	09 95       	icall
				
			}
			
			noteCh0BeatCount = 0;
    2204:	10 92 c6 21 	sts	0x21C6, r1	; 0x8021c6 <noteCh0BeatCount>
			noteCh0Index = 0;
    2208:	10 92 ca 21 	sts	0x21CA, r1	; 0x8021ca <noteCh0Index>
    220c:	10 92 cb 21 	sts	0x21CB, r1	; 0x8021cb <noteCh0Index+0x1>
			noteCh0ExtIndex = 0;
    2210:	10 92 c8 21 	sts	0x21C8, r1	; 0x8021c8 <noteCh0ExtIndex>
    2214:	10 92 c9 21 	sts	0x21C9, r1	; 0x8021c9 <noteCh0ExtIndex+0x1>
			noteCh0ExtBitPos = 0;
    2218:	10 92 c7 21 	sts	0x21C7, r1	; 0x8021c7 <noteCh0ExtBitPos>
		}
		

		set_ch0_note_and_beat();
    221c:	0e 94 23 0f 	call	0x1e46	; 0x1e46 <set_ch0_note_and_beat>
    2220:	03 c0       	rjmp	.+6      	; 0x2228 <song_interrupt_handler+0xaa>
		
	}
	else
	{
		noteCh0BeatCount--;
    2222:	81 50       	subi	r24, 0x01	; 1
    2224:	80 93 c6 21 	sts	0x21C6, r24	; 0x8021c6 <noteCh0BeatCount>
	}
	
	if (!(noteCh1BeatCount))
    2228:	80 91 b7 21 	lds	r24, 0x21B7	; 0x8021b7 <noteCh1BeatCount>
    222c:	81 11       	cpse	r24, r1
    222e:	41 c0       	rjmp	.+130    	; 0x22b2 <song_interrupt_handler+0x134>
	{
		//First turn off base counter
		
		TCD5.CTRLA = 0;
    2230:	e0 e4       	ldi	r30, 0x40	; 64
    2232:	f9 e0       	ldi	r31, 0x09	; 9
    2234:	10 82       	st	Z, r1
		TCD5.CCA = 0;
    2236:	10 a6       	std	Z+40, r1	; 0x28
    2238:	11 a6       	std	Z+41, r1	; 0x29

		if (noteCh1Index >= ch1NoteCount)
    223a:	20 91 bb 21 	lds	r18, 0x21BB	; 0x8021bb <noteCh1Index>
    223e:	30 91 bc 21 	lds	r19, 0x21BC	; 0x8021bc <noteCh1Index+0x1>
    2242:	80 91 b1 21 	lds	r24, 0x21B1	; 0x8021b1 <ch1NoteCount>
    2246:	90 91 b2 21 	lds	r25, 0x21B2	; 0x8021b2 <ch1NoteCount+0x1>
    224a:	28 17       	cp	r18, r24
    224c:	39 07       	cpc	r19, r25
    224e:	70 f1       	brcs	.+92     	; 0x22ac <song_interrupt_handler+0x12e>
		{
			if (isCh1Intro && hasCh1Main)
    2250:	80 91 b0 21 	lds	r24, 0x21B0	; 0x8021b0 <isCh1Intro>
    2254:	88 23       	and	r24, r24
    2256:	f1 f0       	breq	.+60     	; 0x2294 <song_interrupt_handler+0x116>
    2258:	80 91 bd 21 	lds	r24, 0x21BD	; 0x8021bd <hasCh1Main>
    225c:	88 23       	and	r24, r24
    225e:	d1 f0       	breq	.+52     	; 0x2294 <song_interrupt_handler+0x116>
			{
				isCh1Intro = 0;
    2260:	10 92 b0 21 	sts	0x21B0, r1	; 0x8021b0 <isCh1Intro>
				ch1NoteCount = ch1MainNoteCount;
    2264:	80 91 b3 21 	lds	r24, 0x21B3	; 0x8021b3 <ch1MainNoteCount>
    2268:	90 91 b4 21 	lds	r25, 0x21B4	; 0x8021b4 <ch1MainNoteCount+0x1>
    226c:	80 93 b1 21 	sts	0x21B1, r24	; 0x8021b1 <ch1NoteCount>
    2270:	90 93 b2 21 	sts	0x21B2, r25	; 0x8021b2 <ch1NoteCount+0x1>
				ch1Track = ch1MainTrack;
    2274:	80 91 a0 22 	lds	r24, 0x22A0	; 0x8022a0 <ch1MainTrack>
    2278:	90 91 a1 22 	lds	r25, 0x22A1	; 0x8022a1 <ch1MainTrack+0x1>
    227c:	80 93 a4 22 	sts	0x22A4, r24	; 0x8022a4 <ch1Track>
    2280:	90 93 a5 22 	sts	0x22A5, r25	; 0x8022a5 <ch1Track+0x1>
				ch1Ext = ch1MainExt;
    2284:	80 91 9a 22 	lds	r24, 0x229A	; 0x80229a <ch1MainExt>
    2288:	90 91 9b 22 	lds	r25, 0x229B	; 0x80229b <ch1MainExt+0x1>
    228c:	80 93 a8 22 	sts	0x22A8, r24	; 0x8022a8 <ch1Ext>
    2290:	90 93 a9 22 	sts	0x22A9, r25	; 0x8022a9 <ch1Ext+0x1>
			}
			
			noteCh1BeatCount = 0;
    2294:	10 92 b7 21 	sts	0x21B7, r1	; 0x8021b7 <noteCh1BeatCount>
			noteCh1Index = 0;
    2298:	10 92 bb 21 	sts	0x21BB, r1	; 0x8021bb <noteCh1Index>
    229c:	10 92 bc 21 	sts	0x21BC, r1	; 0x8021bc <noteCh1Index+0x1>
			noteCh1ExtIndex = 0;
    22a0:	10 92 b9 21 	sts	0x21B9, r1	; 0x8021b9 <noteCh1ExtIndex>
    22a4:	10 92 ba 21 	sts	0x21BA, r1	; 0x8021ba <noteCh1ExtIndex+0x1>
			noteCh1ExtBitPos = 0;
    22a8:	10 92 b8 21 	sts	0x21B8, r1	; 0x8021b8 <noteCh1ExtBitPos>
		}

		set_ch1_note_and_beat();
    22ac:	0e 94 46 0f 	call	0x1e8c	; 0x1e8c <set_ch1_note_and_beat>
    22b0:	03 c0       	rjmp	.+6      	; 0x22b8 <song_interrupt_handler+0x13a>
	}
	else
	{
		noteCh1BeatCount--;
    22b2:	81 50       	subi	r24, 0x01	; 1
    22b4:	80 93 b7 21 	sts	0x21B7, r24	; 0x8021b7 <noteCh1BeatCount>
	}
	
	update_display_callback_ptr();
    22b8:	e0 91 9c 22 	lds	r30, 0x229C	; 0x80229c <update_display_callback_ptr>
    22bc:	f0 91 9d 22 	lds	r31, 0x229D	; 0x80229d <update_display_callback_ptr+0x1>
    22c0:	09 95       	icall
    22c2:	2f ef       	ldi	r18, 0xFF	; 255
    22c4:	83 ef       	ldi	r24, 0xF3	; 243
    22c6:	91 e0       	ldi	r25, 0x01	; 1
    22c8:	21 50       	subi	r18, 0x01	; 1
    22ca:	80 40       	sbci	r24, 0x00	; 0
    22cc:	90 40       	sbci	r25, 0x00	; 0
    22ce:	e1 f7       	brne	.-8      	; 0x22c8 <song_interrupt_handler+0x14a>
    22d0:	00 c0       	rjmp	.+0      	; 0x22d2 <song_interrupt_handler+0x154>
    22d2:	00 00       	nop
	_delay_ms(20);
	TCC5.CTRLA = TC_CLKSEL_DIV8_gc;
    22d4:	84 e0       	ldi	r24, 0x04	; 4
    22d6:	80 93 40 08 	sts	0x0840, r24	; 0x800840 <__TEXT_REGION_LENGTH__+0x7fb840>
	TCD5.CTRLA = TC_CLKSEL_DIV8_gc;
    22da:	80 93 40 09 	sts	0x0940, r24	; 0x800940 <__TEXT_REGION_LENGTH__+0x7fb940>
    22de:	08 95       	ret

000022e0 <get_allow_portal>:
volatile uint8_t allow_portal = 0;
volatile uint8_t allow_easter_egg = 0;

uint8_t get_allow_portal()
{
	return allow_portal;
    22e0:	80 91 cf 21 	lds	r24, 0x21CF	; 0x8021cf <allow_portal>
}
    22e4:	08 95       	ret

000022e6 <set_allow_portal>:

void set_allow_portal(uint8_t allow)
{
	allow_portal = allow;
    22e6:	80 93 cf 21 	sts	0x21CF, r24	; 0x8021cf <allow_portal>
	eeprom_write_byte((uint8_t *)2, allow_portal ? ALLOW_VAL : 0);
    22ea:	60 91 cf 21 	lds	r22, 0x21CF	; 0x8021cf <allow_portal>
    22ee:	61 11       	cpse	r22, r1
    22f0:	65 e5       	ldi	r22, 0x55	; 85
    22f2:	82 e0       	ldi	r24, 0x02	; 2
    22f4:	90 e0       	ldi	r25, 0x00	; 0
    22f6:	0e 94 15 14 	call	0x282a	; 0x282a <eeprom_write_byte>
    22fa:	08 95       	ret

000022fc <get_allow_easter_egg>:
}

uint8_t get_allow_easter_egg()
{
	return allow_easter_egg;
    22fc:	80 91 ce 21 	lds	r24, 0x21CE	; 0x8021ce <allow_easter_egg>
}
    2300:	08 95       	ret

00002302 <set_allow_easter_egg>:

void set_allow_easter_egg(uint8_t allow)
{
	allow_easter_egg = allow;
    2302:	80 93 ce 21 	sts	0x21CE, r24	; 0x8021ce <allow_easter_egg>
	eeprom_write_byte((uint8_t *)3, allow_easter_egg ? ALLOW_VAL : 0);
    2306:	60 91 ce 21 	lds	r22, 0x21CE	; 0x8021ce <allow_easter_egg>
    230a:	61 11       	cpse	r22, r1
    230c:	65 e5       	ldi	r22, 0x55	; 85
    230e:	83 e0       	ldi	r24, 0x03	; 3
    2310:	90 e0       	ldi	r25, 0x00	; 0
    2312:	0e 94 15 14 	call	0x282a	; 0x282a <eeprom_write_byte>
    2316:	08 95       	ret

00002318 <get_start_mode>:
}

uint8_t get_start_mode()
{
	return start_mode;
    2318:	80 91 d0 21 	lds	r24, 0x21D0	; 0x8021d0 <start_mode>
}
    231c:	08 95       	ret

0000231e <reset_start_mode_in_eeprom>:

void reset_start_mode_in_eeprom()
{
	eeprom_write_byte((uint8_t *)1, 0);
    231e:	60 e0       	ldi	r22, 0x00	; 0
    2320:	81 e0       	ldi	r24, 0x01	; 1
    2322:	90 e0       	ldi	r25, 0x00	; 0
    2324:	0e 94 15 14 	call	0x282a	; 0x282a <eeprom_write_byte>
    2328:	08 95       	ret

0000232a <enable_wdt>:
}

void enable_wdt()
{
	CCP = CCP_IOREG_gc;
    232a:	88 ed       	ldi	r24, 0xD8	; 216
    232c:	84 bf       	out	0x34, r24	; 52
	WDT_CTRL = WDT_ENABLE_bm | WDT_CEN_bm;
    232e:	83 e0       	ldi	r24, 0x03	; 3
    2330:	80 93 80 00 	sts	0x0080, r24	; 0x800080 <__TEXT_REGION_LENGTH__+0x7fb080>
    2334:	08 95       	ret

00002336 <start_mode_init>:
}

void start_mode_init(uint8_t unlock)
{
    2336:	cf 93       	push	r28
    2338:	c8 2f       	mov	r28, r24
	
	start_mode = eeprom_read_byte((uint8_t*)1);
    233a:	81 e0       	ldi	r24, 0x01	; 1
    233c:	90 e0       	ldi	r25, 0x00	; 0
    233e:	0e 94 0d 14 	call	0x281a	; 0x281a <eeprom_read_byte>
    2342:	80 93 d0 21 	sts	0x21D0, r24	; 0x8021d0 <start_mode>
	
	if (start_mode > BASE_MAX_MODE + 2 && start_mode != EASTER_EGG_START_sm)
    2346:	80 91 d0 21 	lds	r24, 0x21D0	; 0x8021d0 <start_mode>
    234a:	87 30       	cpi	r24, 0x07	; 7
    234c:	40 f0       	brcs	.+16     	; 0x235e <start_mode_init+0x28>
    234e:	80 91 d0 21 	lds	r24, 0x21D0	; 0x8021d0 <start_mode>
    2352:	8f 3e       	cpi	r24, 0xEF	; 239
    2354:	21 f0       	breq	.+8      	; 0x235e <start_mode_init+0x28>
	{
		start_mode = 0;
    2356:	10 92 d0 21 	sts	0x21D0, r1	; 0x8021d0 <start_mode>
		reset_start_mode_in_eeprom();
    235a:	0e 94 8f 11 	call	0x231e	; 0x231e <reset_start_mode_in_eeprom>
	}
	
	allow_portal = eeprom_read_byte((uint8_t*)2);
    235e:	82 e0       	ldi	r24, 0x02	; 2
    2360:	90 e0       	ldi	r25, 0x00	; 0
    2362:	0e 94 0d 14 	call	0x281a	; 0x281a <eeprom_read_byte>
    2366:	80 93 cf 21 	sts	0x21CF, r24	; 0x8021cf <allow_portal>
	
	if (allow_portal != ALLOW_VAL && unlock)
    236a:	80 91 cf 21 	lds	r24, 0x21CF	; 0x8021cf <allow_portal>
    236e:	85 35       	cpi	r24, 0x55	; 85
    2370:	31 f0       	breq	.+12     	; 0x237e <start_mode_init+0x48>
    2372:	cc 23       	and	r28, r28
    2374:	21 f0       	breq	.+8      	; 0x237e <start_mode_init+0x48>
	{
 		allow_portal = ALLOW_VAL & unlock;
    2376:	8c 2f       	mov	r24, r28
    2378:	85 75       	andi	r24, 0x55	; 85
    237a:	80 93 cf 21 	sts	0x21CF, r24	; 0x8021cf <allow_portal>
	}
	
	allow_easter_egg = eeprom_read_byte((uint8_t*)3);
    237e:	83 e0       	ldi	r24, 0x03	; 3
    2380:	90 e0       	ldi	r25, 0x00	; 0
    2382:	0e 94 0d 14 	call	0x281a	; 0x281a <eeprom_read_byte>
    2386:	80 93 ce 21 	sts	0x21CE, r24	; 0x8021ce <allow_easter_egg>

	if (allow_easter_egg != ALLOW_VAL && unlock)
    238a:	80 91 ce 21 	lds	r24, 0x21CE	; 0x8021ce <allow_easter_egg>
    238e:	85 35       	cpi	r24, 0x55	; 85
    2390:	29 f0       	breq	.+10     	; 0x239c <start_mode_init+0x66>
    2392:	cc 23       	and	r28, r28
    2394:	19 f0       	breq	.+6      	; 0x239c <start_mode_init+0x66>
	{
		allow_easter_egg = ALLOW_VAL & unlock;	
    2396:	c5 75       	andi	r28, 0x55	; 85
    2398:	c0 93 ce 21 	sts	0x21CE, r28	; 0x8021ce <allow_easter_egg>
	}
	
	
}
    239c:	cf 91       	pop	r28
    239e:	08 95       	ret

000023a0 <set_start_mode>:
void set_start_mode(uint8_t start_mode)
{
	//If start mode is set to what "Allow Portal" would be, we need to see
	//if the mode can be set to "Allow Portal", or if it can be skipped and
	//go straight to "Easter Egg" mode, or we just roll back to "Standby"
	if (start_mode == BASE_MAX_MODE + 1)
    23a0:	85 30       	cpi	r24, 0x05	; 5
    23a2:	91 f4       	brne	.+36     	; 0x23c8 <set_start_mode+0x28>
	{
		//This falls through if allow_porta is true, and allows the mode to
		//be switched to Portal mode
		
		if ((allow_portal != ALLOW_VAL) && (allow_easter_egg != ALLOW_VAL))
    23a4:	90 91 cf 21 	lds	r25, 0x21CF	; 0x8021cf <allow_portal>
    23a8:	95 35       	cpi	r25, 0x55	; 85
    23aa:	21 f0       	breq	.+8      	; 0x23b4 <set_start_mode+0x14>
    23ac:	90 91 ce 21 	lds	r25, 0x21CE	; 0x8021ce <allow_easter_egg>
    23b0:	95 35       	cpi	r25, 0x55	; 85
    23b2:	b1 f4       	brne	.+44     	; 0x23e0 <set_start_mode+0x40>
		{
			start_mode = 0;
		}
		else if ((allow_portal != ALLOW_VAL) && (allow_easter_egg == ALLOW_VAL))
    23b4:	90 91 cf 21 	lds	r25, 0x21CF	; 0x8021cf <allow_portal>
    23b8:	95 35       	cpi	r25, 0x55	; 85
    23ba:	b9 f0       	breq	.+46     	; 0x23ea <set_start_mode+0x4a>
    23bc:	90 91 ce 21 	lds	r25, 0x21CE	; 0x8021ce <allow_easter_egg>
    23c0:	95 35       	cpi	r25, 0x55	; 85
    23c2:	99 f4       	brne	.+38     	; 0x23ea <set_start_mode+0x4a>
		{
			start_mode++;
    23c4:	8f 5f       	subi	r24, 0xFF	; 255
    23c6:	11 c0       	rjmp	.+34     	; 0x23ea <set_start_mode+0x4a>
		}
	}
	else if (start_mode == BASE_MAX_MODE + 2)
    23c8:	86 30       	cpi	r24, 0x06	; 6
    23ca:	29 f4       	brne	.+10     	; 0x23d6 <set_start_mode+0x36>
	{
		//Just let this fall through if allow_easter_egg is true
		//so we can switch to easter egg mode
		if ((allow_easter_egg != ALLOW_VAL))
    23cc:	90 91 ce 21 	lds	r25, 0x21CE	; 0x8021ce <allow_easter_egg>
    23d0:	95 35       	cpi	r25, 0x55	; 85
    23d2:	41 f4       	brne	.+16     	; 0x23e4 <set_start_mode+0x44>
    23d4:	0a c0       	rjmp	.+20     	; 0x23ea <set_start_mode+0x4a>
		{
			start_mode = 0;
		}
		
	}
	else if (start_mode > BASE_MAX_MODE + 2 && start_mode != EASTER_EGG_START_sm)
    23d6:	87 30       	cpi	r24, 0x07	; 7
    23d8:	40 f0       	brcs	.+16     	; 0x23ea <set_start_mode+0x4a>
    23da:	8f 3e       	cpi	r24, 0xEF	; 239
    23dc:	29 f4       	brne	.+10     	; 0x23e8 <set_start_mode+0x48>
    23de:	05 c0       	rjmp	.+10     	; 0x23ea <set_start_mode+0x4a>
		//This falls through if allow_porta is true, and allows the mode to
		//be switched to Portal mode
		
		if ((allow_portal != ALLOW_VAL) && (allow_easter_egg != ALLOW_VAL))
		{
			start_mode = 0;
    23e0:	80 e0       	ldi	r24, 0x00	; 0
    23e2:	03 c0       	rjmp	.+6      	; 0x23ea <set_start_mode+0x4a>
	{
		//Just let this fall through if allow_easter_egg is true
		//so we can switch to easter egg mode
		if ((allow_easter_egg != ALLOW_VAL))
		{
			start_mode = 0;
    23e4:	80 e0       	ldi	r24, 0x00	; 0
    23e6:	01 c0       	rjmp	.+2      	; 0x23ea <set_start_mode+0x4a>
		
	}
	else if (start_mode > BASE_MAX_MODE + 2 && start_mode != EASTER_EGG_START_sm)
	{
		//Our default restart state
		start_mode = 0;
    23e8:	80 e0       	ldi	r24, 0x00	; 0
	}
	
	eeprom_write_byte((uint8_t *)1, start_mode);
    23ea:	68 2f       	mov	r22, r24
    23ec:	81 e0       	ldi	r24, 0x01	; 1
    23ee:	90 e0       	ldi	r25, 0x00	; 0
    23f0:	0e 94 15 14 	call	0x282a	; 0x282a <eeprom_write_byte>
	eeprom_busy_wait();
    23f4:	80 91 cf 01 	lds	r24, 0x01CF	; 0x8001cf <__TEXT_REGION_LENGTH__+0x7fb1cf>
    23f8:	88 23       	and	r24, r24
    23fa:	e4 f3       	brlt	.-8      	; 0x23f4 <set_start_mode+0x54>
	enable_wdt();
    23fc:	0e 94 95 11 	call	0x232a	; 0x232a <enable_wdt>
    2400:	ff cf       	rjmp	.-2      	; 0x2400 <set_start_mode+0x60>

00002402 <next_start_mode>:
	
}

void next_start_mode()
{
	start_mode++;
    2402:	80 91 d0 21 	lds	r24, 0x21D0	; 0x8021d0 <start_mode>
    2406:	8f 5f       	subi	r24, 0xFF	; 255
    2408:	80 93 d0 21 	sts	0x21D0, r24	; 0x8021d0 <start_mode>
	set_start_mode(start_mode);
    240c:	80 91 d0 21 	lds	r24, 0x21D0	; 0x8021d0 <start_mode>
    2410:	0e 94 d0 11 	call	0x23a0	; 0x23a0 <set_start_mode>

00002414 <ws2812drv_init>:


void ws2812drv_init(void)
{                                                               
    // Setup EDMA channel 2(+1) 
    EDMA.CTRL = EDMA_ENABLE_bm | EDMA_CHMODE_STD02_gc | EDMA_DBUFMODE_DISABLE_gc | EDMA_PRIMODE_RR0123_gc;
    2414:	a0 e0       	ldi	r26, 0x00	; 0
    2416:	b1 e0       	ldi	r27, 0x01	; 1
    2418:	80 eb       	ldi	r24, 0xB0	; 176
    241a:	8c 93       	st	X, r24
    EDMA.CH2.CTRLB = 0;// EDMA_CH_INTLVL_OFF_gc;
    241c:	d1 96       	adiw	r26, 0x31	; 49
    241e:	1c 92       	st	X, r1
    2420:	d1 97       	sbiw	r26, 0x31	; 49
    EDMA.CH2.ADDRCTRL = EDMA_CH_RELOAD_NONE_gc | EDMA_CH_DIR_INC_gc;
    2422:	81 e0       	ldi	r24, 0x01	; 1
    2424:	d2 96       	adiw	r26, 0x32	; 50
    2426:	8c 93       	st	X, r24
    2428:	d2 97       	sbiw	r26, 0x32	; 50
    EDMA.CH2.DESTADDRCTRL = EDMA_CH_RELOAD_NONE_gc | EDMA_CH_DESTDIR_FIXED_gc;
    242a:	d3 96       	adiw	r26, 0x33	; 51
    242c:	1c 92       	st	X, r1
    242e:	d3 97       	sbiw	r26, 0x33	; 51
    EDMA.CH2.DESTADDR = (uint16_t)&USARTD0.DATA;
    2430:	e0 ec       	ldi	r30, 0xC0	; 192
    2432:	f9 e0       	ldi	r31, 0x09	; 9
    2434:	dc 96       	adiw	r26, 0x3c	; 60
    2436:	ed 93       	st	X+, r30
    2438:	fc 93       	st	X, r31
    243a:	dd 97       	sbiw	r26, 0x3d	; 61
    EDMA.CH2.TRIGSRC = EDMA_CH_TRIGSRC_USARTD0_DRE_gc;
    243c:	9d e6       	ldi	r25, 0x6D	; 109
    243e:	d4 96       	adiw	r26, 0x34	; 52
    2440:	9c 93       	st	X, r25
    // Setup port pins for TxD, XCK and LUT0OUT
    PORTD.PIN0CTRL = PORT_OPC_TOTEM_gc;                         // LUT0OUT (data to WS2812)
    2442:	a0 e6       	ldi	r26, 0x60	; 96
    2444:	b6 e0       	ldi	r27, 0x06	; 6
    2446:	50 96       	adiw	r26, 0x10	; 16
    2448:	1c 92       	st	X, r1
    244a:	50 97       	sbiw	r26, 0x10	; 16
    PORTD.PIN1CTRL = PORT_OPC_TOTEM_gc | PORT_ISC_RISING_gc;    // XCK
    244c:	51 96       	adiw	r26, 0x11	; 17
    244e:	8c 93       	st	X, r24
    2450:	51 97       	sbiw	r26, 0x11	; 17
    PORTD.PIN3CTRL = PORT_OPC_TOTEM_gc | PORT_ISC_LEVEL_gc;     // TxD
    2452:	83 e0       	ldi	r24, 0x03	; 3
    2454:	53 96       	adiw	r26, 0x13	; 19
    2456:	8c 93       	st	X, r24
    2458:	53 97       	sbiw	r26, 0x13	; 19
    PORTD.DIRSET = PIN0_bm | PIN1_bm | PIN3_bm;
    245a:	9b e0       	ldi	r25, 0x0B	; 11
    245c:	11 96       	adiw	r26, 0x01	; 1
    245e:	9c 93       	st	X, r25
	

    // Setup Event channel 0 to TxD (async)
    EVSYS.CH0MUX = EVSYS_CHMUX_PORTD_PIN3_gc;
    2460:	a0 e8       	ldi	r26, 0x80	; 128
    2462:	b1 e0       	ldi	r27, 0x01	; 1
    2464:	9b e6       	ldi	r25, 0x6B	; 107
    2466:	9c 93       	st	X, r25
    EVSYS.CH0CTRL = EVSYS_DIGFILT_1SAMPLE_gc;
    2468:	18 96       	adiw	r26, 0x08	; 8
    246a:	1c 92       	st	X, r1
    246c:	18 97       	sbiw	r26, 0x08	; 8
    // Setup Event channel 6 to XCK rising edge
    EVSYS.CH6MUX = EVSYS_CHMUX_PORTD_PIN1_gc;
    246e:	99 e6       	ldi	r25, 0x69	; 105
    2470:	16 96       	adiw	r26, 0x06	; 6
    2472:	9c 93       	st	X, r25
    2474:	16 97       	sbiw	r26, 0x06	; 6
    EVSYS.CH6CTRL = EVSYS_DIGFILT_1SAMPLE_gc;
    2476:	1e 96       	adiw	r26, 0x0e	; 14
    2478:	1c 92       	st	X, r1

    // Setup USART in master SPI mode 1, MSB first
    USARTD0.BAUDCTRLA = 19;                                     // 800.000 baud (1250 ns @ 32 MHz)
    247a:	93 e1       	ldi	r25, 0x13	; 19
    247c:	96 83       	std	Z+6, r25	; 0x06
    USARTD0.BAUDCTRLB = 0;
    247e:	17 82       	std	Z+7, r1	; 0x07
    USARTD0.CTRLA = 0;// USART_RXSINTLVL_OFF_gc | USART_RXCINTLVL_OFF_gc | USART_TXCINTLVL_OFF_gc;
    2480:	12 82       	std	Z+2, r1	; 0x02
    USARTD0.CTRLC = USART_CMODE_MSPI_gc | (1 << 1);             // UDORD=0 UCPHA=1
    2482:	92 ec       	ldi	r25, 0xC2	; 194
    2484:	94 83       	std	Z+4, r25	; 0x04
    USARTD0.CTRLD = USART_DECTYPE_DATA_gc | USART_LUTACT_OFF_gc | USART_PECACT_OFF_gc;
    2486:	15 82       	std	Z+5, r1	; 0x05
    USARTD0.CTRLB = USART_TXEN_bm;
    2488:	98 e0       	ldi	r25, 0x08	; 8
    248a:	93 83       	std	Z+3, r25	; 0x03

    // Setup XCL BTC0 timer to 1shot pwm generation
    XCL.CTRLE = XCL_CMDSEL_NONE_gc | XCL_TCSEL_BTC0_gc | XCL_CLKSEL_DIV1_gc;
    248c:	e0 e6       	ldi	r30, 0x60	; 96
    248e:	f4 e0       	ldi	r31, 0x04	; 4
    2490:	91 e1       	ldi	r25, 0x11	; 17
    2492:	94 83       	std	Z+4, r25	; 0x04
    XCL.CTRLF = XCL_CMDEN_DISABLE_gc | 0x03;                    // 0x03 : One-shot PWM (missing in iox32e5.h)
    2494:	85 83       	std	Z+5, r24	; 0x05
    XCL.CTRLG = XCL_EVACTEN_bm | (0x03<<3) | XCL_EVSRC_EVCH6_gc; // 0x03<<3 : EVACT0=RESTART (missing in iox32e5.h)
    2496:	8e e9       	ldi	r24, 0x9E	; 158
    2498:	86 83       	std	Z+6, r24	; 0x06
    XCL.PERCAPTL = 22;                                          // Output high time if data is 1 (from RESTART to falling edge of one-shot)
    249a:	86 e1       	ldi	r24, 0x16	; 22
    249c:	86 87       	std	Z+14, r24	; 0x0e
    XCL.CMPL = 13;                                              // Output high time if data is 0 (from RESTART to rising edge of one-shot)
    249e:	8d e0       	ldi	r24, 0x0D	; 13
    24a0:	84 87       	std	Z+12, r24	; 0x0c

    // Setup XCL LUT
    XCL.CTRLA = XCL_LUT0OUTEN_PIN0_gc | XCL_PORTSEL_PD_gc | XCL_LUTCONF_MUX_gc;  // Setup glue logic for MUX
    24a2:	84 e5       	ldi	r24, 0x54	; 84
    24a4:	80 83       	st	Z, r24
    XCL.CTRLB = 0x50;                                           // IN3SEL=XCL, IN2SEL=XCL, IN1SEL=EVSYS, IN0SEL=EVSYS (missing in iox32e5.h)
    24a6:	80 e5       	ldi	r24, 0x50	; 80
    24a8:	81 83       	std	Z+1, r24	; 0x01
    XCL.CTRLC = XCL_EVASYSEL0_bm | XCL_DLYCONF_DISABLE_gc;      // Async inputs, no delay
    24aa:	80 e4       	ldi	r24, 0x40	; 64
    24ac:	82 83       	std	Z+2, r24	; 0x02
    XCL.CTRLD = 0xA0;                                           // LUT truthtables (only LUT1 is used)
    24ae:	80 ea       	ldi	r24, 0xA0	; 160
    24b0:	83 83       	std	Z+3, r24	; 0x03
    24b2:	08 95       	ret

000024b4 <ws2812drv_start_transfer>:
}


void ws2812drv_start_transfer(ws2812drv_led_t *p, uint16_t cnt)
{
    EDMA.CH2.ADDR = (uint16_t)p;
    24b4:	e0 e0       	ldi	r30, 0x00	; 0
    24b6:	f1 e0       	ldi	r31, 0x01	; 1
    24b8:	80 af       	std	Z+56, r24	; 0x38
    24ba:	91 af       	std	Z+57, r25	; 0x39
    EDMA.CH2.TRFCNT = cnt * sizeof(ws2812drv_led_t);
    24bc:	cb 01       	movw	r24, r22
    24be:	88 0f       	add	r24, r24
    24c0:	99 1f       	adc	r25, r25
    24c2:	68 0f       	add	r22, r24
    24c4:	79 1f       	adc	r23, r25
    24c6:	66 ab       	std	Z+54, r22	; 0x36
    24c8:	77 ab       	std	Z+55, r23	; 0x37
    EDMA.CH2.CTRLA = EDMA_CH_ENABLE_bm | EDMA_CH_SINGLE_bm; // Start DMA transfer to LEDs
    24ca:	84 e8       	ldi	r24, 0x84	; 132
    24cc:	80 ab       	std	Z+48, r24	; 0x30
    24ce:	08 95       	ret

000024d0 <__divmodhi4>:
    24d0:	97 fb       	bst	r25, 7
    24d2:	07 2e       	mov	r0, r23
    24d4:	16 f4       	brtc	.+4      	; 0x24da <__divmodhi4+0xa>
    24d6:	00 94       	com	r0
    24d8:	07 d0       	rcall	.+14     	; 0x24e8 <__divmodhi4_neg1>
    24da:	77 fd       	sbrc	r23, 7
    24dc:	09 d0       	rcall	.+18     	; 0x24f0 <__divmodhi4_neg2>
    24de:	0e 94 7c 12 	call	0x24f8	; 0x24f8 <__udivmodhi4>
    24e2:	07 fc       	sbrc	r0, 7
    24e4:	05 d0       	rcall	.+10     	; 0x24f0 <__divmodhi4_neg2>
    24e6:	3e f4       	brtc	.+14     	; 0x24f6 <__divmodhi4_exit>

000024e8 <__divmodhi4_neg1>:
    24e8:	90 95       	com	r25
    24ea:	81 95       	neg	r24
    24ec:	9f 4f       	sbci	r25, 0xFF	; 255
    24ee:	08 95       	ret

000024f0 <__divmodhi4_neg2>:
    24f0:	70 95       	com	r23
    24f2:	61 95       	neg	r22
    24f4:	7f 4f       	sbci	r23, 0xFF	; 255

000024f6 <__divmodhi4_exit>:
    24f6:	08 95       	ret

000024f8 <__udivmodhi4>:
    24f8:	aa 1b       	sub	r26, r26
    24fa:	bb 1b       	sub	r27, r27
    24fc:	51 e1       	ldi	r21, 0x11	; 17
    24fe:	07 c0       	rjmp	.+14     	; 0x250e <__udivmodhi4_ep>

00002500 <__udivmodhi4_loop>:
    2500:	aa 1f       	adc	r26, r26
    2502:	bb 1f       	adc	r27, r27
    2504:	a6 17       	cp	r26, r22
    2506:	b7 07       	cpc	r27, r23
    2508:	10 f0       	brcs	.+4      	; 0x250e <__udivmodhi4_ep>
    250a:	a6 1b       	sub	r26, r22
    250c:	b7 0b       	sbc	r27, r23

0000250e <__udivmodhi4_ep>:
    250e:	88 1f       	adc	r24, r24
    2510:	99 1f       	adc	r25, r25
    2512:	5a 95       	dec	r21
    2514:	a9 f7       	brne	.-22     	; 0x2500 <__udivmodhi4_loop>
    2516:	80 95       	com	r24
    2518:	90 95       	com	r25
    251a:	bc 01       	movw	r22, r24
    251c:	cd 01       	movw	r24, r26
    251e:	08 95       	ret

00002520 <malloc>:
    2520:	0f 93       	push	r16
    2522:	1f 93       	push	r17
    2524:	cf 93       	push	r28
    2526:	df 93       	push	r29
    2528:	82 30       	cpi	r24, 0x02	; 2
    252a:	91 05       	cpc	r25, r1
    252c:	10 f4       	brcc	.+4      	; 0x2532 <malloc+0x12>
    252e:	82 e0       	ldi	r24, 0x02	; 2
    2530:	90 e0       	ldi	r25, 0x00	; 0
    2532:	e0 91 ac 22 	lds	r30, 0x22AC	; 0x8022ac <__flp>
    2536:	f0 91 ad 22 	lds	r31, 0x22AD	; 0x8022ad <__flp+0x1>
    253a:	20 e0       	ldi	r18, 0x00	; 0
    253c:	30 e0       	ldi	r19, 0x00	; 0
    253e:	a0 e0       	ldi	r26, 0x00	; 0
    2540:	b0 e0       	ldi	r27, 0x00	; 0
    2542:	30 97       	sbiw	r30, 0x00	; 0
    2544:	19 f1       	breq	.+70     	; 0x258c <malloc+0x6c>
    2546:	40 81       	ld	r20, Z
    2548:	51 81       	ldd	r21, Z+1	; 0x01
    254a:	02 81       	ldd	r16, Z+2	; 0x02
    254c:	13 81       	ldd	r17, Z+3	; 0x03
    254e:	48 17       	cp	r20, r24
    2550:	59 07       	cpc	r21, r25
    2552:	c8 f0       	brcs	.+50     	; 0x2586 <malloc+0x66>
    2554:	84 17       	cp	r24, r20
    2556:	95 07       	cpc	r25, r21
    2558:	69 f4       	brne	.+26     	; 0x2574 <malloc+0x54>
    255a:	10 97       	sbiw	r26, 0x00	; 0
    255c:	31 f0       	breq	.+12     	; 0x256a <malloc+0x4a>
    255e:	12 96       	adiw	r26, 0x02	; 2
    2560:	0c 93       	st	X, r16
    2562:	12 97       	sbiw	r26, 0x02	; 2
    2564:	13 96       	adiw	r26, 0x03	; 3
    2566:	1c 93       	st	X, r17
    2568:	27 c0       	rjmp	.+78     	; 0x25b8 <malloc+0x98>
    256a:	00 93 ac 22 	sts	0x22AC, r16	; 0x8022ac <__flp>
    256e:	10 93 ad 22 	sts	0x22AD, r17	; 0x8022ad <__flp+0x1>
    2572:	22 c0       	rjmp	.+68     	; 0x25b8 <malloc+0x98>
    2574:	21 15       	cp	r18, r1
    2576:	31 05       	cpc	r19, r1
    2578:	19 f0       	breq	.+6      	; 0x2580 <malloc+0x60>
    257a:	42 17       	cp	r20, r18
    257c:	53 07       	cpc	r21, r19
    257e:	18 f4       	brcc	.+6      	; 0x2586 <malloc+0x66>
    2580:	9a 01       	movw	r18, r20
    2582:	bd 01       	movw	r22, r26
    2584:	ef 01       	movw	r28, r30
    2586:	df 01       	movw	r26, r30
    2588:	f8 01       	movw	r30, r16
    258a:	db cf       	rjmp	.-74     	; 0x2542 <malloc+0x22>
    258c:	21 15       	cp	r18, r1
    258e:	31 05       	cpc	r19, r1
    2590:	f9 f0       	breq	.+62     	; 0x25d0 <malloc+0xb0>
    2592:	28 1b       	sub	r18, r24
    2594:	39 0b       	sbc	r19, r25
    2596:	24 30       	cpi	r18, 0x04	; 4
    2598:	31 05       	cpc	r19, r1
    259a:	80 f4       	brcc	.+32     	; 0x25bc <malloc+0x9c>
    259c:	8a 81       	ldd	r24, Y+2	; 0x02
    259e:	9b 81       	ldd	r25, Y+3	; 0x03
    25a0:	61 15       	cp	r22, r1
    25a2:	71 05       	cpc	r23, r1
    25a4:	21 f0       	breq	.+8      	; 0x25ae <malloc+0x8e>
    25a6:	fb 01       	movw	r30, r22
    25a8:	82 83       	std	Z+2, r24	; 0x02
    25aa:	93 83       	std	Z+3, r25	; 0x03
    25ac:	04 c0       	rjmp	.+8      	; 0x25b6 <malloc+0x96>
    25ae:	80 93 ac 22 	sts	0x22AC, r24	; 0x8022ac <__flp>
    25b2:	90 93 ad 22 	sts	0x22AD, r25	; 0x8022ad <__flp+0x1>
    25b6:	fe 01       	movw	r30, r28
    25b8:	32 96       	adiw	r30, 0x02	; 2
    25ba:	44 c0       	rjmp	.+136    	; 0x2644 <malloc+0x124>
    25bc:	fe 01       	movw	r30, r28
    25be:	e2 0f       	add	r30, r18
    25c0:	f3 1f       	adc	r31, r19
    25c2:	81 93       	st	Z+, r24
    25c4:	91 93       	st	Z+, r25
    25c6:	22 50       	subi	r18, 0x02	; 2
    25c8:	31 09       	sbc	r19, r1
    25ca:	28 83       	st	Y, r18
    25cc:	39 83       	std	Y+1, r19	; 0x01
    25ce:	3a c0       	rjmp	.+116    	; 0x2644 <malloc+0x124>
    25d0:	20 91 aa 22 	lds	r18, 0x22AA	; 0x8022aa <__brkval>
    25d4:	30 91 ab 22 	lds	r19, 0x22AB	; 0x8022ab <__brkval+0x1>
    25d8:	23 2b       	or	r18, r19
    25da:	41 f4       	brne	.+16     	; 0x25ec <malloc+0xcc>
    25dc:	20 91 02 20 	lds	r18, 0x2002	; 0x802002 <__malloc_heap_start>
    25e0:	30 91 03 20 	lds	r19, 0x2003	; 0x802003 <__malloc_heap_start+0x1>
    25e4:	20 93 aa 22 	sts	0x22AA, r18	; 0x8022aa <__brkval>
    25e8:	30 93 ab 22 	sts	0x22AB, r19	; 0x8022ab <__brkval+0x1>
    25ec:	20 91 00 20 	lds	r18, 0x2000	; 0x802000 <__DATA_REGION_ORIGIN__>
    25f0:	30 91 01 20 	lds	r19, 0x2001	; 0x802001 <__DATA_REGION_ORIGIN__+0x1>
    25f4:	21 15       	cp	r18, r1
    25f6:	31 05       	cpc	r19, r1
    25f8:	41 f4       	brne	.+16     	; 0x260a <malloc+0xea>
    25fa:	2d b7       	in	r18, 0x3d	; 61
    25fc:	3e b7       	in	r19, 0x3e	; 62
    25fe:	40 91 04 20 	lds	r20, 0x2004	; 0x802004 <__malloc_margin>
    2602:	50 91 05 20 	lds	r21, 0x2005	; 0x802005 <__malloc_margin+0x1>
    2606:	24 1b       	sub	r18, r20
    2608:	35 0b       	sbc	r19, r21
    260a:	e0 91 aa 22 	lds	r30, 0x22AA	; 0x8022aa <__brkval>
    260e:	f0 91 ab 22 	lds	r31, 0x22AB	; 0x8022ab <__brkval+0x1>
    2612:	e2 17       	cp	r30, r18
    2614:	f3 07       	cpc	r31, r19
    2616:	a0 f4       	brcc	.+40     	; 0x2640 <malloc+0x120>
    2618:	2e 1b       	sub	r18, r30
    261a:	3f 0b       	sbc	r19, r31
    261c:	28 17       	cp	r18, r24
    261e:	39 07       	cpc	r19, r25
    2620:	78 f0       	brcs	.+30     	; 0x2640 <malloc+0x120>
    2622:	ac 01       	movw	r20, r24
    2624:	4e 5f       	subi	r20, 0xFE	; 254
    2626:	5f 4f       	sbci	r21, 0xFF	; 255
    2628:	24 17       	cp	r18, r20
    262a:	35 07       	cpc	r19, r21
    262c:	48 f0       	brcs	.+18     	; 0x2640 <malloc+0x120>
    262e:	4e 0f       	add	r20, r30
    2630:	5f 1f       	adc	r21, r31
    2632:	40 93 aa 22 	sts	0x22AA, r20	; 0x8022aa <__brkval>
    2636:	50 93 ab 22 	sts	0x22AB, r21	; 0x8022ab <__brkval+0x1>
    263a:	81 93       	st	Z+, r24
    263c:	91 93       	st	Z+, r25
    263e:	02 c0       	rjmp	.+4      	; 0x2644 <malloc+0x124>
    2640:	e0 e0       	ldi	r30, 0x00	; 0
    2642:	f0 e0       	ldi	r31, 0x00	; 0
    2644:	cf 01       	movw	r24, r30
    2646:	df 91       	pop	r29
    2648:	cf 91       	pop	r28
    264a:	1f 91       	pop	r17
    264c:	0f 91       	pop	r16
    264e:	08 95       	ret

00002650 <free>:
    2650:	cf 93       	push	r28
    2652:	df 93       	push	r29
    2654:	00 97       	sbiw	r24, 0x00	; 0
    2656:	09 f4       	brne	.+2      	; 0x265a <free+0xa>
    2658:	81 c0       	rjmp	.+258    	; 0x275c <free+0x10c>
    265a:	fc 01       	movw	r30, r24
    265c:	32 97       	sbiw	r30, 0x02	; 2
    265e:	12 82       	std	Z+2, r1	; 0x02
    2660:	13 82       	std	Z+3, r1	; 0x03
    2662:	a0 91 ac 22 	lds	r26, 0x22AC	; 0x8022ac <__flp>
    2666:	b0 91 ad 22 	lds	r27, 0x22AD	; 0x8022ad <__flp+0x1>
    266a:	10 97       	sbiw	r26, 0x00	; 0
    266c:	81 f4       	brne	.+32     	; 0x268e <free+0x3e>
    266e:	20 81       	ld	r18, Z
    2670:	31 81       	ldd	r19, Z+1	; 0x01
    2672:	82 0f       	add	r24, r18
    2674:	93 1f       	adc	r25, r19
    2676:	20 91 aa 22 	lds	r18, 0x22AA	; 0x8022aa <__brkval>
    267a:	30 91 ab 22 	lds	r19, 0x22AB	; 0x8022ab <__brkval+0x1>
    267e:	28 17       	cp	r18, r24
    2680:	39 07       	cpc	r19, r25
    2682:	51 f5       	brne	.+84     	; 0x26d8 <free+0x88>
    2684:	e0 93 aa 22 	sts	0x22AA, r30	; 0x8022aa <__brkval>
    2688:	f0 93 ab 22 	sts	0x22AB, r31	; 0x8022ab <__brkval+0x1>
    268c:	67 c0       	rjmp	.+206    	; 0x275c <free+0x10c>
    268e:	ed 01       	movw	r28, r26
    2690:	20 e0       	ldi	r18, 0x00	; 0
    2692:	30 e0       	ldi	r19, 0x00	; 0
    2694:	ce 17       	cp	r28, r30
    2696:	df 07       	cpc	r29, r31
    2698:	40 f4       	brcc	.+16     	; 0x26aa <free+0x5a>
    269a:	4a 81       	ldd	r20, Y+2	; 0x02
    269c:	5b 81       	ldd	r21, Y+3	; 0x03
    269e:	9e 01       	movw	r18, r28
    26a0:	41 15       	cp	r20, r1
    26a2:	51 05       	cpc	r21, r1
    26a4:	f1 f0       	breq	.+60     	; 0x26e2 <free+0x92>
    26a6:	ea 01       	movw	r28, r20
    26a8:	f5 cf       	rjmp	.-22     	; 0x2694 <free+0x44>
    26aa:	c2 83       	std	Z+2, r28	; 0x02
    26ac:	d3 83       	std	Z+3, r29	; 0x03
    26ae:	40 81       	ld	r20, Z
    26b0:	51 81       	ldd	r21, Z+1	; 0x01
    26b2:	84 0f       	add	r24, r20
    26b4:	95 1f       	adc	r25, r21
    26b6:	c8 17       	cp	r28, r24
    26b8:	d9 07       	cpc	r29, r25
    26ba:	59 f4       	brne	.+22     	; 0x26d2 <free+0x82>
    26bc:	88 81       	ld	r24, Y
    26be:	99 81       	ldd	r25, Y+1	; 0x01
    26c0:	84 0f       	add	r24, r20
    26c2:	95 1f       	adc	r25, r21
    26c4:	02 96       	adiw	r24, 0x02	; 2
    26c6:	80 83       	st	Z, r24
    26c8:	91 83       	std	Z+1, r25	; 0x01
    26ca:	8a 81       	ldd	r24, Y+2	; 0x02
    26cc:	9b 81       	ldd	r25, Y+3	; 0x03
    26ce:	82 83       	std	Z+2, r24	; 0x02
    26d0:	93 83       	std	Z+3, r25	; 0x03
    26d2:	21 15       	cp	r18, r1
    26d4:	31 05       	cpc	r19, r1
    26d6:	29 f4       	brne	.+10     	; 0x26e2 <free+0x92>
    26d8:	e0 93 ac 22 	sts	0x22AC, r30	; 0x8022ac <__flp>
    26dc:	f0 93 ad 22 	sts	0x22AD, r31	; 0x8022ad <__flp+0x1>
    26e0:	3d c0       	rjmp	.+122    	; 0x275c <free+0x10c>
    26e2:	e9 01       	movw	r28, r18
    26e4:	ea 83       	std	Y+2, r30	; 0x02
    26e6:	fb 83       	std	Y+3, r31	; 0x03
    26e8:	49 91       	ld	r20, Y+
    26ea:	59 91       	ld	r21, Y+
    26ec:	c4 0f       	add	r28, r20
    26ee:	d5 1f       	adc	r29, r21
    26f0:	ec 17       	cp	r30, r28
    26f2:	fd 07       	cpc	r31, r29
    26f4:	61 f4       	brne	.+24     	; 0x270e <free+0xbe>
    26f6:	80 81       	ld	r24, Z
    26f8:	91 81       	ldd	r25, Z+1	; 0x01
    26fa:	84 0f       	add	r24, r20
    26fc:	95 1f       	adc	r25, r21
    26fe:	02 96       	adiw	r24, 0x02	; 2
    2700:	e9 01       	movw	r28, r18
    2702:	88 83       	st	Y, r24
    2704:	99 83       	std	Y+1, r25	; 0x01
    2706:	82 81       	ldd	r24, Z+2	; 0x02
    2708:	93 81       	ldd	r25, Z+3	; 0x03
    270a:	8a 83       	std	Y+2, r24	; 0x02
    270c:	9b 83       	std	Y+3, r25	; 0x03
    270e:	e0 e0       	ldi	r30, 0x00	; 0
    2710:	f0 e0       	ldi	r31, 0x00	; 0
    2712:	12 96       	adiw	r26, 0x02	; 2
    2714:	8d 91       	ld	r24, X+
    2716:	9c 91       	ld	r25, X
    2718:	13 97       	sbiw	r26, 0x03	; 3
    271a:	00 97       	sbiw	r24, 0x00	; 0
    271c:	19 f0       	breq	.+6      	; 0x2724 <free+0xd4>
    271e:	fd 01       	movw	r30, r26
    2720:	dc 01       	movw	r26, r24
    2722:	f7 cf       	rjmp	.-18     	; 0x2712 <free+0xc2>
    2724:	8d 91       	ld	r24, X+
    2726:	9c 91       	ld	r25, X
    2728:	11 97       	sbiw	r26, 0x01	; 1
    272a:	9d 01       	movw	r18, r26
    272c:	2e 5f       	subi	r18, 0xFE	; 254
    272e:	3f 4f       	sbci	r19, 0xFF	; 255
    2730:	82 0f       	add	r24, r18
    2732:	93 1f       	adc	r25, r19
    2734:	20 91 aa 22 	lds	r18, 0x22AA	; 0x8022aa <__brkval>
    2738:	30 91 ab 22 	lds	r19, 0x22AB	; 0x8022ab <__brkval+0x1>
    273c:	28 17       	cp	r18, r24
    273e:	39 07       	cpc	r19, r25
    2740:	69 f4       	brne	.+26     	; 0x275c <free+0x10c>
    2742:	30 97       	sbiw	r30, 0x00	; 0
    2744:	29 f4       	brne	.+10     	; 0x2750 <free+0x100>
    2746:	10 92 ac 22 	sts	0x22AC, r1	; 0x8022ac <__flp>
    274a:	10 92 ad 22 	sts	0x22AD, r1	; 0x8022ad <__flp+0x1>
    274e:	02 c0       	rjmp	.+4      	; 0x2754 <free+0x104>
    2750:	12 82       	std	Z+2, r1	; 0x02
    2752:	13 82       	std	Z+3, r1	; 0x03
    2754:	a0 93 aa 22 	sts	0x22AA, r26	; 0x8022aa <__brkval>
    2758:	b0 93 ab 22 	sts	0x22AB, r27	; 0x8022ab <__brkval+0x1>
    275c:	df 91       	pop	r29
    275e:	cf 91       	pop	r28
    2760:	08 95       	ret

00002762 <do_rand>:
    2762:	8f 92       	push	r8
    2764:	9f 92       	push	r9
    2766:	af 92       	push	r10
    2768:	bf 92       	push	r11
    276a:	cf 92       	push	r12
    276c:	df 92       	push	r13
    276e:	ef 92       	push	r14
    2770:	ff 92       	push	r15
    2772:	cf 93       	push	r28
    2774:	df 93       	push	r29
    2776:	ec 01       	movw	r28, r24
    2778:	68 81       	ld	r22, Y
    277a:	79 81       	ldd	r23, Y+1	; 0x01
    277c:	8a 81       	ldd	r24, Y+2	; 0x02
    277e:	9b 81       	ldd	r25, Y+3	; 0x03
    2780:	61 15       	cp	r22, r1
    2782:	71 05       	cpc	r23, r1
    2784:	81 05       	cpc	r24, r1
    2786:	91 05       	cpc	r25, r1
    2788:	21 f4       	brne	.+8      	; 0x2792 <do_rand+0x30>
    278a:	64 e2       	ldi	r22, 0x24	; 36
    278c:	79 ed       	ldi	r23, 0xD9	; 217
    278e:	8b e5       	ldi	r24, 0x5B	; 91
    2790:	97 e0       	ldi	r25, 0x07	; 7
    2792:	2d e1       	ldi	r18, 0x1D	; 29
    2794:	33 ef       	ldi	r19, 0xF3	; 243
    2796:	41 e0       	ldi	r20, 0x01	; 1
    2798:	50 e0       	ldi	r21, 0x00	; 0
    279a:	0e 94 2b 14 	call	0x2856	; 0x2856 <__divmodsi4>
    279e:	49 01       	movw	r8, r18
    27a0:	5a 01       	movw	r10, r20
    27a2:	9b 01       	movw	r18, r22
    27a4:	ac 01       	movw	r20, r24
    27a6:	a7 ea       	ldi	r26, 0xA7	; 167
    27a8:	b1 e4       	ldi	r27, 0x41	; 65
    27aa:	0e 94 4a 14 	call	0x2894	; 0x2894 <__muluhisi3>
    27ae:	6b 01       	movw	r12, r22
    27b0:	7c 01       	movw	r14, r24
    27b2:	ac ee       	ldi	r26, 0xEC	; 236
    27b4:	b4 ef       	ldi	r27, 0xF4	; 244
    27b6:	a5 01       	movw	r20, r10
    27b8:	94 01       	movw	r18, r8
    27ba:	0e 94 58 14 	call	0x28b0	; 0x28b0 <__mulohisi3>
    27be:	dc 01       	movw	r26, r24
    27c0:	cb 01       	movw	r24, r22
    27c2:	8c 0d       	add	r24, r12
    27c4:	9d 1d       	adc	r25, r13
    27c6:	ae 1d       	adc	r26, r14
    27c8:	bf 1d       	adc	r27, r15
    27ca:	b7 ff       	sbrs	r27, 7
    27cc:	03 c0       	rjmp	.+6      	; 0x27d4 <do_rand+0x72>
    27ce:	01 97       	sbiw	r24, 0x01	; 1
    27d0:	a1 09       	sbc	r26, r1
    27d2:	b0 48       	sbci	r27, 0x80	; 128
    27d4:	88 83       	st	Y, r24
    27d6:	99 83       	std	Y+1, r25	; 0x01
    27d8:	aa 83       	std	Y+2, r26	; 0x02
    27da:	bb 83       	std	Y+3, r27	; 0x03
    27dc:	9f 77       	andi	r25, 0x7F	; 127
    27de:	df 91       	pop	r29
    27e0:	cf 91       	pop	r28
    27e2:	ff 90       	pop	r15
    27e4:	ef 90       	pop	r14
    27e6:	df 90       	pop	r13
    27e8:	cf 90       	pop	r12
    27ea:	bf 90       	pop	r11
    27ec:	af 90       	pop	r10
    27ee:	9f 90       	pop	r9
    27f0:	8f 90       	pop	r8
    27f2:	08 95       	ret

000027f4 <rand_r>:
    27f4:	0e 94 b1 13 	call	0x2762	; 0x2762 <do_rand>
    27f8:	08 95       	ret

000027fa <rand>:
    27fa:	86 e0       	ldi	r24, 0x06	; 6
    27fc:	90 e2       	ldi	r25, 0x20	; 32
    27fe:	0e 94 b1 13 	call	0x2762	; 0x2762 <do_rand>
    2802:	08 95       	ret

00002804 <srand>:
    2804:	a0 e0       	ldi	r26, 0x00	; 0
    2806:	b0 e0       	ldi	r27, 0x00	; 0
    2808:	80 93 06 20 	sts	0x2006, r24	; 0x802006 <next>
    280c:	90 93 07 20 	sts	0x2007, r25	; 0x802007 <next+0x1>
    2810:	a0 93 08 20 	sts	0x2008, r26	; 0x802008 <next+0x2>
    2814:	b0 93 09 20 	sts	0x2009, r27	; 0x802009 <next+0x3>
    2818:	08 95       	ret

0000281a <eeprom_read_byte>:
    281a:	03 d0       	rcall	.+6      	; 0x2822 <eeprom_mapen>
    281c:	80 81       	ld	r24, Z
    281e:	99 27       	eor	r25, r25
    2820:	08 95       	ret

00002822 <eeprom_mapen>:
    2822:	fc 01       	movw	r30, r24
    2824:	e0 50       	subi	r30, 0x00	; 0
    2826:	f0 4f       	sbci	r31, 0xF0	; 240
    2828:	08 95       	ret

0000282a <eeprom_write_byte>:
    282a:	26 2f       	mov	r18, r22

0000282c <eeprom_write_r18>:
    282c:	af 93       	push	r26
    282e:	bf 93       	push	r27
    2830:	e0 ec       	ldi	r30, 0xC0	; 192
    2832:	f1 e0       	ldi	r31, 0x01	; 1
    2834:	37 85       	ldd	r19, Z+15	; 0x0f
    2836:	37 fd       	sbrc	r19, 7
    2838:	fd cf       	rjmp	.-6      	; 0x2834 <eeprom_write_r18+0x8>
    283a:	dc 01       	movw	r26, r24
    283c:	a0 50       	subi	r26, 0x00	; 0
    283e:	b0 4f       	sbci	r27, 0xF0	; 240
    2840:	2c 93       	st	X, r18
    2842:	25 e3       	ldi	r18, 0x35	; 53
    2844:	22 87       	std	Z+10, r18	; 0x0a
    2846:	28 ed       	ldi	r18, 0xD8	; 216
    2848:	31 e0       	ldi	r19, 0x01	; 1
    284a:	24 bf       	out	0x34, r18	; 52
    284c:	33 87       	std	Z+11, r19	; 0x0b
    284e:	01 96       	adiw	r24, 0x01	; 1
    2850:	bf 91       	pop	r27
    2852:	af 91       	pop	r26
    2854:	08 95       	ret

00002856 <__divmodsi4>:
    2856:	05 2e       	mov	r0, r21
    2858:	97 fb       	bst	r25, 7
    285a:	1e f4       	brtc	.+6      	; 0x2862 <__divmodsi4+0xc>
    285c:	00 94       	com	r0
    285e:	0e 94 42 14 	call	0x2884	; 0x2884 <__negsi2>
    2862:	57 fd       	sbrc	r21, 7
    2864:	07 d0       	rcall	.+14     	; 0x2874 <__divmodsi4_neg2>
    2866:	0e 94 5d 14 	call	0x28ba	; 0x28ba <__udivmodsi4>
    286a:	07 fc       	sbrc	r0, 7
    286c:	03 d0       	rcall	.+6      	; 0x2874 <__divmodsi4_neg2>
    286e:	4e f4       	brtc	.+18     	; 0x2882 <__divmodsi4_exit>
    2870:	0c 94 42 14 	jmp	0x2884	; 0x2884 <__negsi2>

00002874 <__divmodsi4_neg2>:
    2874:	50 95       	com	r21
    2876:	40 95       	com	r20
    2878:	30 95       	com	r19
    287a:	21 95       	neg	r18
    287c:	3f 4f       	sbci	r19, 0xFF	; 255
    287e:	4f 4f       	sbci	r20, 0xFF	; 255
    2880:	5f 4f       	sbci	r21, 0xFF	; 255

00002882 <__divmodsi4_exit>:
    2882:	08 95       	ret

00002884 <__negsi2>:
    2884:	90 95       	com	r25
    2886:	80 95       	com	r24
    2888:	70 95       	com	r23
    288a:	61 95       	neg	r22
    288c:	7f 4f       	sbci	r23, 0xFF	; 255
    288e:	8f 4f       	sbci	r24, 0xFF	; 255
    2890:	9f 4f       	sbci	r25, 0xFF	; 255
    2892:	08 95       	ret

00002894 <__muluhisi3>:
    2894:	0e 94 7f 14 	call	0x28fe	; 0x28fe <__umulhisi3>
    2898:	a5 9f       	mul	r26, r21
    289a:	90 0d       	add	r25, r0
    289c:	b4 9f       	mul	r27, r20
    289e:	90 0d       	add	r25, r0
    28a0:	a4 9f       	mul	r26, r20
    28a2:	80 0d       	add	r24, r0
    28a4:	91 1d       	adc	r25, r1
    28a6:	11 24       	eor	r1, r1
    28a8:	08 95       	ret

000028aa <__mulshisi3>:
    28aa:	b7 ff       	sbrs	r27, 7
    28ac:	0c 94 4a 14 	jmp	0x2894	; 0x2894 <__muluhisi3>

000028b0 <__mulohisi3>:
    28b0:	0e 94 4a 14 	call	0x2894	; 0x2894 <__muluhisi3>
    28b4:	82 1b       	sub	r24, r18
    28b6:	93 0b       	sbc	r25, r19
    28b8:	08 95       	ret

000028ba <__udivmodsi4>:
    28ba:	a1 e2       	ldi	r26, 0x21	; 33
    28bc:	1a 2e       	mov	r1, r26
    28be:	aa 1b       	sub	r26, r26
    28c0:	bb 1b       	sub	r27, r27
    28c2:	fd 01       	movw	r30, r26
    28c4:	0d c0       	rjmp	.+26     	; 0x28e0 <__udivmodsi4_ep>

000028c6 <__udivmodsi4_loop>:
    28c6:	aa 1f       	adc	r26, r26
    28c8:	bb 1f       	adc	r27, r27
    28ca:	ee 1f       	adc	r30, r30
    28cc:	ff 1f       	adc	r31, r31
    28ce:	a2 17       	cp	r26, r18
    28d0:	b3 07       	cpc	r27, r19
    28d2:	e4 07       	cpc	r30, r20
    28d4:	f5 07       	cpc	r31, r21
    28d6:	20 f0       	brcs	.+8      	; 0x28e0 <__udivmodsi4_ep>
    28d8:	a2 1b       	sub	r26, r18
    28da:	b3 0b       	sbc	r27, r19
    28dc:	e4 0b       	sbc	r30, r20
    28de:	f5 0b       	sbc	r31, r21

000028e0 <__udivmodsi4_ep>:
    28e0:	66 1f       	adc	r22, r22
    28e2:	77 1f       	adc	r23, r23
    28e4:	88 1f       	adc	r24, r24
    28e6:	99 1f       	adc	r25, r25
    28e8:	1a 94       	dec	r1
    28ea:	69 f7       	brne	.-38     	; 0x28c6 <__udivmodsi4_loop>
    28ec:	60 95       	com	r22
    28ee:	70 95       	com	r23
    28f0:	80 95       	com	r24
    28f2:	90 95       	com	r25
    28f4:	9b 01       	movw	r18, r22
    28f6:	ac 01       	movw	r20, r24
    28f8:	bd 01       	movw	r22, r26
    28fa:	cf 01       	movw	r24, r30
    28fc:	08 95       	ret

000028fe <__umulhisi3>:
    28fe:	a2 9f       	mul	r26, r18
    2900:	b0 01       	movw	r22, r0
    2902:	b3 9f       	mul	r27, r19
    2904:	c0 01       	movw	r24, r0
    2906:	a3 9f       	mul	r26, r19
    2908:	70 0d       	add	r23, r0
    290a:	81 1d       	adc	r24, r1
    290c:	11 24       	eor	r1, r1
    290e:	91 1d       	adc	r25, r1
    2910:	b2 9f       	mul	r27, r18
    2912:	70 0d       	add	r23, r0
    2914:	81 1d       	adc	r24, r1
    2916:	11 24       	eor	r1, r1
    2918:	91 1d       	adc	r25, r1
    291a:	08 95       	ret

0000291c <_exit>:
    291c:	f8 94       	cli

0000291e <__stop_program>:
    291e:	ff cf       	rjmp	.-2      	; 0x291e <__stop_program>
